
./main:     file format elf64-x86-64


Disassembly of section .init:

0000000000002000 <_init>:
    2000:	f3 0f 1e fa          	endbr64 
    2004:	48 83 ec 08          	sub    $0x8,%rsp
    2008:	48 8b 05 d1 2f 03 00 	mov    0x32fd1(%rip),%rax        # 34fe0 <__gmon_start__@Base>
    200f:	48 85 c0             	test   %rax,%rax
    2012:	74 02                	je     2016 <_init+0x16>
    2014:	ff d0                	call   *%rax
    2016:	48 83 c4 08          	add    $0x8,%rsp
    201a:	c3                   	ret    

Disassembly of section .plt:

0000000000002020 <_Znam@plt-0x10>:
    2020:	ff 35 e2 2f 03 00    	push   0x32fe2(%rip)        # 35008 <_GLOBAL_OFFSET_TABLE_+0x8>
    2026:	ff 25 e4 2f 03 00    	jmp    *0x32fe4(%rip)        # 35010 <_GLOBAL_OFFSET_TABLE_+0x10>
    202c:	0f 1f 40 00          	nopl   0x0(%rax)

0000000000002030 <_Znam@plt>:
    2030:	ff 25 e2 2f 03 00    	jmp    *0x32fe2(%rip)        # 35018 <_Znam@GLIBCXX_3.4>
    2036:	68 00 00 00 00       	push   $0x0
    203b:	e9 e0 ff ff ff       	jmp    2020 <_init+0x20>

0000000000002040 <_ZNSo3putEc@plt>:
    2040:	ff 25 da 2f 03 00    	jmp    *0x32fda(%rip)        # 35020 <_ZNSo3putEc@GLIBCXX_3.4>
    2046:	68 01 00 00 00       	push   $0x1
    204b:	e9 d0 ff ff ff       	jmp    2020 <_init+0x20>

0000000000002050 <__errno_location@plt>:
    2050:	ff 25 d2 2f 03 00    	jmp    *0x32fd2(%rip)        # 35028 <__errno_location@GLIBC_2.2.5>
    2056:	68 02 00 00 00       	push   $0x2
    205b:	e9 c0 ff ff ff       	jmp    2020 <_init+0x20>

0000000000002060 <ungetc@plt>:
    2060:	ff 25 ca 2f 03 00    	jmp    *0x32fca(%rip)        # 35030 <ungetc@GLIBC_2.2.5>
    2066:	68 03 00 00 00       	push   $0x3
    206b:	e9 b0 ff ff ff       	jmp    2020 <_init+0x20>

0000000000002070 <_ZSt17__throw_bad_allocv@plt>:
    2070:	ff 25 c2 2f 03 00    	jmp    *0x32fc2(%rip)        # 35038 <_ZSt17__throw_bad_allocv@GLIBCXX_3.4>
    2076:	68 04 00 00 00       	push   $0x4
    207b:	e9 a0 ff ff ff       	jmp    2020 <_init+0x20>

0000000000002080 <_ZSt25__throw_bad_function_callv@plt>:
    2080:	ff 25 ba 2f 03 00    	jmp    *0x32fba(%rip)        # 35040 <_ZSt25__throw_bad_function_callv@GLIBCXX_3.4.14>
    2086:	68 05 00 00 00       	push   $0x5
    208b:	e9 90 ff ff ff       	jmp    2020 <_init+0x20>

0000000000002090 <_ZNSt13runtime_errorC1EPKc@plt>:
    2090:	ff 25 b2 2f 03 00    	jmp    *0x32fb2(%rip)        # 35048 <_ZNSt13runtime_errorC1EPKc@GLIBCXX_3.4.21>
    2096:	68 06 00 00 00       	push   $0x6
    209b:	e9 80 ff ff ff       	jmp    2020 <_init+0x20>

00000000000020a0 <__cxa_begin_catch@plt>:
    20a0:	ff 25 aa 2f 03 00    	jmp    *0x32faa(%rip)        # 35050 <__cxa_begin_catch@CXXABI_1.3>
    20a6:	68 07 00 00 00       	push   $0x7
    20ab:	e9 70 ff ff ff       	jmp    2020 <_init+0x20>

00000000000020b0 <strlen@plt>:
    20b0:	ff 25 a2 2f 03 00    	jmp    *0x32fa2(%rip)        # 35058 <strlen@GLIBC_2.2.5>
    20b6:	68 08 00 00 00       	push   $0x8
    20bb:	e9 60 ff ff ff       	jmp    2020 <_init+0x20>

00000000000020c0 <memcmp@plt>:
    20c0:	ff 25 9a 2f 03 00    	jmp    *0x32f9a(%rip)        # 35060 <memcmp@GLIBC_2.2.5>
    20c6:	68 09 00 00 00       	push   $0x9
    20cb:	e9 50 ff ff ff       	jmp    2020 <_init+0x20>

00000000000020d0 <__cxa_allocate_exception@plt>:
    20d0:	ff 25 92 2f 03 00    	jmp    *0x32f92(%rip)        # 35068 <__cxa_allocate_exception@CXXABI_1.3>
    20d6:	68 0a 00 00 00       	push   $0xa
    20db:	e9 40 ff ff ff       	jmp    2020 <_init+0x20>

00000000000020e0 <_ZSt20__throw_length_errorPKc@plt>:
    20e0:	ff 25 8a 2f 03 00    	jmp    *0x32f8a(%rip)        # 35070 <_ZSt20__throw_length_errorPKc@GLIBCXX_3.4>
    20e6:	68 0b 00 00 00       	push   $0xb
    20eb:	e9 30 ff ff ff       	jmp    2020 <_init+0x20>

00000000000020f0 <fmin@plt>:
    20f0:	ff 25 82 2f 03 00    	jmp    *0x32f82(%rip)        # 35078 <fmin@GLIBC_2.2.5>
    20f6:	68 0c 00 00 00       	push   $0xc
    20fb:	e9 20 ff ff ff       	jmp    2020 <_init+0x20>

0000000000002100 <memset@plt>:
    2100:	ff 25 7a 2f 03 00    	jmp    *0x32f7a(%rip)        # 35080 <memset@GLIBC_2.2.5>
    2106:	68 0d 00 00 00       	push   $0xd
    210b:	e9 10 ff ff ff       	jmp    2020 <_init+0x20>

0000000000002110 <_ZN2sf8Keyboard12isKeyPressedENS0_3KeyE@plt>:
    2110:	ff 25 72 2f 03 00    	jmp    *0x32f72(%rip)        # 35088 <_ZN2sf8Keyboard12isKeyPressedENS0_3KeyE@Base>
    2116:	68 0e 00 00 00       	push   $0xe
    211b:	e9 00 ff ff ff       	jmp    2020 <_init+0x20>

0000000000002120 <_ZSt24__throw_invalid_argumentPKc@plt>:
    2120:	ff 25 6a 2f 03 00    	jmp    *0x32f6a(%rip)        # 35090 <_ZSt24__throw_invalid_argumentPKc@GLIBCXX_3.4>
    2126:	68 0f 00 00 00       	push   $0xf
    212b:	e9 f0 fe ff ff       	jmp    2020 <_init+0x20>

0000000000002130 <sincos@plt>:
    2130:	ff 25 62 2f 03 00    	jmp    *0x32f62(%rip)        # 35098 <sincos@GLIBC_2.2.5>
    2136:	68 10 00 00 00       	push   $0x10
    213b:	e9 e0 fe ff ff       	jmp    2020 <_init+0x20>

0000000000002140 <__assert_fail@plt>:
    2140:	ff 25 5a 2f 03 00    	jmp    *0x32f5a(%rip)        # 350a0 <__assert_fail@GLIBC_2.2.5>
    2146:	68 11 00 00 00       	push   $0x11
    214b:	e9 d0 fe ff ff       	jmp    2020 <_init+0x20>

0000000000002150 <calloc@plt>:
    2150:	ff 25 52 2f 03 00    	jmp    *0x32f52(%rip)        # 350a8 <calloc@GLIBC_2.2.5>
    2156:	68 12 00 00 00       	push   $0x12
    215b:	e9 c0 fe ff ff       	jmp    2020 <_init+0x20>

0000000000002160 <_ZNSo5flushEv@plt>:
    2160:	ff 25 4a 2f 03 00    	jmp    *0x32f4a(%rip)        # 350b0 <_ZNSo5flushEv@GLIBCXX_3.4>
    2166:	68 13 00 00 00       	push   $0x13
    216b:	e9 b0 fe ff ff       	jmp    2020 <_init+0x20>

0000000000002170 <_ZSt19__throw_logic_errorPKc@plt>:
    2170:	ff 25 42 2f 03 00    	jmp    *0x32f42(%rip)        # 350b8 <_ZSt19__throw_logic_errorPKc@GLIBCXX_3.4>
    2176:	68 14 00 00 00       	push   $0x14
    217b:	e9 a0 fe ff ff       	jmp    2020 <_init+0x20>

0000000000002180 <__cxa_free_exception@plt>:
    2180:	ff 25 3a 2f 03 00    	jmp    *0x32f3a(%rip)        # 350c0 <__cxa_free_exception@CXXABI_1.3>
    2186:	68 15 00 00 00       	push   $0x15
    218b:	e9 90 fe ff ff       	jmp    2020 <_init+0x20>

0000000000002190 <sqrt@plt>:
    2190:	ff 25 32 2f 03 00    	jmp    *0x32f32(%rip)        # 350c8 <sqrt@GLIBC_2.2.5>
    2196:	68 16 00 00 00       	push   $0x16
    219b:	e9 80 fe ff ff       	jmp    2020 <_init+0x20>

00000000000021a0 <memcpy@plt>:
    21a0:	ff 25 2a 2f 03 00    	jmp    *0x32f2a(%rip)        # 350d0 <memcpy@GLIBC_2.14>
    21a6:	68 17 00 00 00       	push   $0x17
    21ab:	e9 70 fe ff ff       	jmp    2020 <_init+0x20>

00000000000021b0 <__cxa_atexit@plt>:
    21b0:	ff 25 22 2f 03 00    	jmp    *0x32f22(%rip)        # 350d8 <__cxa_atexit@GLIBC_2.2.5>
    21b6:	68 18 00 00 00       	push   $0x18
    21bb:	e9 60 fe ff ff       	jmp    2020 <_init+0x20>

00000000000021c0 <fclose@plt>:
    21c0:	ff 25 1a 2f 03 00    	jmp    *0x32f1a(%rip)        # 350e0 <fclose@GLIBC_2.2.5>
    21c6:	68 19 00 00 00       	push   $0x19
    21cb:	e9 50 fe ff ff       	jmp    2020 <_init+0x20>

00000000000021d0 <_Znwm@plt>:
    21d0:	ff 25 12 2f 03 00    	jmp    *0x32f12(%rip)        # 350e8 <_Znwm@GLIBCXX_3.4>
    21d6:	68 1a 00 00 00       	push   $0x1a
    21db:	e9 40 fe ff ff       	jmp    2020 <_init+0x20>

00000000000021e0 <_ZdlPvm@plt>:
    21e0:	ff 25 0a 2f 03 00    	jmp    *0x32f0a(%rip)        # 350f0 <_ZdlPvm@CXXABI_1.3.9>
    21e6:	68 1b 00 00 00       	push   $0x1b
    21eb:	e9 30 fe ff ff       	jmp    2020 <_init+0x20>

00000000000021f0 <fseek@plt>:
    21f0:	ff 25 02 2f 03 00    	jmp    *0x32f02(%rip)        # 350f8 <fseek@GLIBC_2.2.5>
    21f6:	68 1c 00 00 00       	push   $0x1c
    21fb:	e9 20 fe ff ff       	jmp    2020 <_init+0x20>

0000000000002200 <memchr@plt>:
    2200:	ff 25 fa 2e 03 00    	jmp    *0x32efa(%rip)        # 35100 <memchr@GLIBC_2.2.5>
    2206:	68 1d 00 00 00       	push   $0x1d
    220b:	e9 10 fe ff ff       	jmp    2020 <_init+0x20>

0000000000002210 <__stack_chk_fail@plt>:
    2210:	ff 25 f2 2e 03 00    	jmp    *0x32ef2(%rip)        # 35108 <__stack_chk_fail@GLIBC_2.4>
    2216:	68 1e 00 00 00       	push   $0x1e
    221b:	e9 00 fe ff ff       	jmp    2020 <_init+0x20>

0000000000002220 <_ZSt16__ostream_insertIcSt11char_traitsIcEERSt13basic_ostreamIT_T0_ES6_PKS3_l@plt>:
    2220:	ff 25 ea 2e 03 00    	jmp    *0x32eea(%rip)        # 35110 <_ZSt16__ostream_insertIcSt11char_traitsIcEERSt13basic_ostreamIT_T0_ES6_PKS3_l@GLIBCXX_3.4.9>
    2226:	68 1f 00 00 00       	push   $0x1f
    222b:	e9 f0 fd ff ff       	jmp    2020 <_init+0x20>

0000000000002230 <_ZNKSt5ctypeIcE13_M_widen_initEv@plt>:
    2230:	ff 25 e2 2e 03 00    	jmp    *0x32ee2(%rip)        # 35118 <_ZNKSt5ctypeIcE13_M_widen_initEv@GLIBCXX_3.4.11>
    2236:	68 20 00 00 00       	push   $0x20
    223b:	e9 e0 fd ff ff       	jmp    2020 <_init+0x20>

0000000000002240 <fopen@plt>:
    2240:	ff 25 da 2e 03 00    	jmp    *0x32eda(%rip)        # 35120 <fopen@GLIBC_2.2.5>
    2246:	68 21 00 00 00       	push   $0x21
    224b:	e9 d0 fd ff ff       	jmp    2020 <_init+0x20>

0000000000002250 <free@plt>:
    2250:	ff 25 d2 2e 03 00    	jmp    *0x32ed2(%rip)        # 35128 <free@GLIBC_2.2.5>
    2256:	68 22 00 00 00       	push   $0x22
    225b:	e9 c0 fd ff ff       	jmp    2020 <_init+0x20>

0000000000002260 <fmax@plt>:
    2260:	ff 25 ca 2e 03 00    	jmp    *0x32eca(%rip)        # 35130 <fmax@GLIBC_2.2.5>
    2266:	68 23 00 00 00       	push   $0x23
    226b:	e9 b0 fd ff ff       	jmp    2020 <_init+0x20>

0000000000002270 <_ZSt16__throw_bad_castv@plt>:
    2270:	ff 25 c2 2e 03 00    	jmp    *0x32ec2(%rip)        # 35138 <_ZSt16__throw_bad_castv@GLIBCXX_3.4>
    2276:	68 24 00 00 00       	push   $0x24
    227b:	e9 a0 fd ff ff       	jmp    2020 <_init+0x20>

0000000000002280 <_ZdaPv@plt>:
    2280:	ff 25 ba 2e 03 00    	jmp    *0x32eba(%rip)        # 35140 <_ZdaPv@GLIBCXX_3.4>
    2286:	68 25 00 00 00       	push   $0x25
    228b:	e9 90 fd ff ff       	jmp    2020 <_init+0x20>

0000000000002290 <malloc@plt>:
    2290:	ff 25 b2 2e 03 00    	jmp    *0x32eb2(%rip)        # 35148 <malloc@GLIBC_2.2.5>
    2296:	68 26 00 00 00       	push   $0x26
    229b:	e9 80 fd ff ff       	jmp    2020 <_init+0x20>

00000000000022a0 <strtof@plt>:
    22a0:	ff 25 aa 2e 03 00    	jmp    *0x32eaa(%rip)        # 35150 <strtof@GLIBC_2.2.5>
    22a6:	68 27 00 00 00       	push   $0x27
    22ab:	e9 70 fd ff ff       	jmp    2020 <_init+0x20>

00000000000022b0 <fmod@plt>:
    22b0:	ff 25 a2 2e 03 00    	jmp    *0x32ea2(%rip)        # 35158 <fmod@GLIBC_2.2.5>
    22b6:	68 28 00 00 00       	push   $0x28
    22bb:	e9 60 fd ff ff       	jmp    2020 <_init+0x20>

00000000000022c0 <ldexpf@plt>:
    22c0:	ff 25 9a 2e 03 00    	jmp    *0x32e9a(%rip)        # 35160 <ldexpf@GLIBC_2.2.5>
    22c6:	68 29 00 00 00       	push   $0x29
    22cb:	e9 50 fd ff ff       	jmp    2020 <_init+0x20>

00000000000022d0 <strcmp@plt>:
    22d0:	ff 25 92 2e 03 00    	jmp    *0x32e92(%rip)        # 35168 <strcmp@GLIBC_2.2.5>
    22d6:	68 2a 00 00 00       	push   $0x2a
    22db:	e9 40 fd ff ff       	jmp    2020 <_init+0x20>

00000000000022e0 <strtol@plt>:
    22e0:	ff 25 8a 2e 03 00    	jmp    *0x32e8a(%rip)        # 35170 <strtol@GLIBC_2.2.5>
    22e6:	68 2b 00 00 00       	push   $0x2b
    22eb:	e9 30 fd ff ff       	jmp    2020 <_init+0x20>

00000000000022f0 <__cxa_throw_bad_array_new_length@plt>:
    22f0:	ff 25 82 2e 03 00    	jmp    *0x32e82(%rip)        # 35178 <__cxa_throw_bad_array_new_length@CXXABI_1.3.8>
    22f6:	68 2c 00 00 00       	push   $0x2c
    22fb:	e9 20 fd ff ff       	jmp    2020 <_init+0x20>

0000000000002300 <_ZSt20__throw_out_of_rangePKc@plt>:
    2300:	ff 25 7a 2e 03 00    	jmp    *0x32e7a(%rip)        # 35180 <_ZSt20__throw_out_of_rangePKc@GLIBCXX_3.4>
    2306:	68 2d 00 00 00       	push   $0x2d
    230b:	e9 10 fd ff ff       	jmp    2020 <_init+0x20>

0000000000002310 <tolower@plt>:
    2310:	ff 25 72 2e 03 00    	jmp    *0x32e72(%rip)        # 35188 <tolower@GLIBC_2.2.5>
    2316:	68 2e 00 00 00       	push   $0x2e
    231b:	e9 00 fd ff ff       	jmp    2020 <_init+0x20>

0000000000002320 <fread@plt>:
    2320:	ff 25 6a 2e 03 00    	jmp    *0x32e6a(%rip)        # 35190 <fread@GLIBC_2.2.5>
    2326:	68 2f 00 00 00       	push   $0x2f
    232b:	e9 f0 fc ff ff       	jmp    2020 <_init+0x20>

0000000000002330 <_ZSt24__throw_out_of_range_fmtPKcz@plt>:
    2330:	ff 25 62 2e 03 00    	jmp    *0x32e62(%rip)        # 35198 <_ZSt24__throw_out_of_range_fmtPKcz@GLIBCXX_3.4.20>
    2336:	68 30 00 00 00       	push   $0x30
    233b:	e9 e0 fc ff ff       	jmp    2020 <_init+0x20>

0000000000002340 <_ZNSt8ios_base4InitC1Ev@plt>:
    2340:	ff 25 5a 2e 03 00    	jmp    *0x32e5a(%rip)        # 351a0 <_ZNSt8ios_base4InitC1Ev@GLIBCXX_3.4>
    2346:	68 31 00 00 00       	push   $0x31
    234b:	e9 d0 fc ff ff       	jmp    2020 <_init+0x20>

0000000000002350 <feof@plt>:
    2350:	ff 25 52 2e 03 00    	jmp    *0x32e52(%rip)        # 351a8 <feof@GLIBC_2.2.5>
    2356:	68 32 00 00 00       	push   $0x32
    235b:	e9 c0 fc ff ff       	jmp    2020 <_init+0x20>

0000000000002360 <powf@plt>:
    2360:	ff 25 4a 2e 03 00    	jmp    *0x32e4a(%rip)        # 351b0 <powf@GLIBC_2.27>
    2366:	68 33 00 00 00       	push   $0x33
    236b:	e9 b0 fc ff ff       	jmp    2020 <_init+0x20>

0000000000002370 <fgetc@plt>:
    2370:	ff 25 42 2e 03 00    	jmp    *0x32e42(%rip)        # 351b8 <fgetc@GLIBC_2.2.5>
    2376:	68 34 00 00 00       	push   $0x34
    237b:	e9 a0 fc ff ff       	jmp    2020 <_init+0x20>

0000000000002380 <_ZNSo9_M_insertIdEERSoT_@plt>:
    2380:	ff 25 3a 2e 03 00    	jmp    *0x32e3a(%rip)        # 351c0 <_ZNSo9_M_insertIdEERSoT_@GLIBCXX_3.4.9>
    2386:	68 35 00 00 00       	push   $0x35
    238b:	e9 90 fc ff ff       	jmp    2020 <_init+0x20>

0000000000002390 <_ZNSt13runtime_errorC1ERKNSt7__cxx1112basic_stringIcSt11char_traitsIcESaIcEEE@plt>:
    2390:	ff 25 32 2e 03 00    	jmp    *0x32e32(%rip)        # 351c8 <_ZNSt13runtime_errorC1ERKNSt7__cxx1112basic_stringIcSt11char_traitsIcESaIcEEE@GLIBCXX_3.4.21>
    2396:	68 36 00 00 00       	push   $0x36
    239b:	e9 80 fc ff ff       	jmp    2020 <_init+0x20>

00000000000023a0 <memmove@plt>:
    23a0:	ff 25 2a 2e 03 00    	jmp    *0x32e2a(%rip)        # 351d0 <memmove@GLIBC_2.2.5>
    23a6:	68 37 00 00 00       	push   $0x37
    23ab:	e9 70 fc ff ff       	jmp    2020 <_init+0x20>

00000000000023b0 <__cxa_end_catch@plt>:
    23b0:	ff 25 22 2e 03 00    	jmp    *0x32e22(%rip)        # 351d8 <__cxa_end_catch@CXXABI_1.3>
    23b6:	68 38 00 00 00       	push   $0x38
    23bb:	e9 60 fc ff ff       	jmp    2020 <_init+0x20>

00000000000023c0 <realloc@plt>:
    23c0:	ff 25 1a 2e 03 00    	jmp    *0x32e1a(%rip)        # 351e0 <realloc@GLIBC_2.2.5>
    23c6:	68 39 00 00 00       	push   $0x39
    23cb:	e9 50 fc ff ff       	jmp    2020 <_init+0x20>

00000000000023d0 <__cxa_throw@plt>:
    23d0:	ff 25 12 2e 03 00    	jmp    *0x32e12(%rip)        # 351e8 <__cxa_throw@CXXABI_1.3>
    23d6:	68 3a 00 00 00       	push   $0x3a
    23db:	e9 40 fc ff ff       	jmp    2020 <_init+0x20>

00000000000023e0 <_ZNSolsEi@plt>:
    23e0:	ff 25 0a 2e 03 00    	jmp    *0x32e0a(%rip)        # 351f0 <_ZNSolsEi@GLIBCXX_3.4>
    23e6:	68 3b 00 00 00       	push   $0x3b
    23eb:	e9 30 fc ff ff       	jmp    2020 <_init+0x20>

00000000000023f0 <_ZNSt16invalid_argumentC1ERKNSt7__cxx1112basic_stringIcSt11char_traitsIcESaIcEEE@plt>:
    23f0:	ff 25 02 2e 03 00    	jmp    *0x32e02(%rip)        # 351f8 <_ZNSt16invalid_argumentC1ERKNSt7__cxx1112basic_stringIcSt11char_traitsIcESaIcEEE@GLIBCXX_3.4.21>
    23f6:	68 3c 00 00 00       	push   $0x3c
    23fb:	e9 20 fc ff ff       	jmp    2020 <_init+0x20>

0000000000002400 <_Unwind_Resume@plt>:
    2400:	ff 25 fa 2d 03 00    	jmp    *0x32dfa(%rip)        # 35200 <_Unwind_Resume@GCC_3.0>
    2406:	68 3d 00 00 00       	push   $0x3d
    240b:	e9 10 fc ff ff       	jmp    2020 <_init+0x20>

0000000000002410 <sqrtf@plt>:
    2410:	ff 25 f2 2d 03 00    	jmp    *0x32df2(%rip)        # 35208 <sqrtf@GLIBC_2.2.5>
    2416:	68 3e 00 00 00       	push   $0x3e
    241b:	e9 00 fc ff ff       	jmp    2020 <_init+0x20>

0000000000002420 <ferror@plt>:
    2420:	ff 25 ea 2d 03 00    	jmp    *0x32dea(%rip)        # 35210 <ferror@GLIBC_2.2.5>
    2426:	68 3f 00 00 00       	push   $0x3f
    242b:	e9 f0 fb ff ff       	jmp    2020 <_init+0x20>

0000000000002430 <_ZNSt16invalid_argumentC1EPKc@plt>:
    2430:	ff 25 e2 2d 03 00    	jmp    *0x32de2(%rip)        # 35218 <_ZNSt16invalid_argumentC1EPKc@GLIBCXX_3.4.21>
    2436:	68 40 00 00 00       	push   $0x40
    243b:	e9 e0 fb ff ff       	jmp    2020 <_init+0x20>

0000000000002440 <qsort@plt>:
    2440:	ff 25 da 2d 03 00    	jmp    *0x32dda(%rip)        # 35220 <qsort@GLIBC_2.2.5>
    2446:	68 41 00 00 00       	push   $0x41
    244b:	e9 d0 fb ff ff       	jmp    2020 <_init+0x20>

0000000000002450 <fwrite@plt>:
    2450:	ff 25 d2 2d 03 00    	jmp    *0x32dd2(%rip)        # 35228 <fwrite@GLIBC_2.2.5>
    2456:	68 42 00 00 00       	push   $0x42
    245b:	e9 c0 fb ff ff       	jmp    2020 <_init+0x20>

Disassembly of section .text:

0000000000002460 <_ZN10arg_parser7findArgENSt7__cxx1112basic_stringIcSt11char_traitsIcESaIcEEE.cold>:
    2460:	48 8b 44 24 38       	mov    0x38(%rsp),%rax
    2465:	48 8b 38             	mov    (%rax),%rdi
    2468:	48 39 7c 24 50       	cmp    %rdi,0x50(%rsp)
    246d:	74 0d                	je     247c <_ZN10arg_parser7findArgENSt7__cxx1112basic_stringIcSt11char_traitsIcESaIcEEE.cold+0x1c>
    246f:	48 8b 70 10          	mov    0x10(%rax),%rsi
    2473:	48 83 c6 01          	add    $0x1,%rsi
    2477:	e8 64 fd ff ff       	call   21e0 <_ZdlPvm@plt>
    247c:	48 89 ef             	mov    %rbp,%rdi
    247f:	e8 7c ff ff ff       	call   2400 <_Unwind_Resume@plt>

0000000000002484 <_ZN10arg_parser5parseENSt7__cxx1112basic_stringIcSt11char_traitsIcESaIcEEEbRf.cold>:
    2484:	83 3b 00             	cmpl   $0x0,(%rbx)
    2487:	75 06                	jne    248f <_ZN10arg_parser5parseENSt7__cxx1112basic_stringIcSt11char_traitsIcESaIcEEEbRf.cold+0xb>
    2489:	8b 44 24 08          	mov    0x8(%rsp),%eax
    248d:	89 03                	mov    %eax,(%rbx)
    248f:	48 8b 7c 24 40       	mov    0x40(%rsp),%rdi
    2494:	48 8d 44 24 50       	lea    0x50(%rsp),%rax
    2499:	48 39 c7             	cmp    %rax,%rdi
    249c:	74 0e                	je     24ac <_ZN10arg_parser5parseENSt7__cxx1112basic_stringIcSt11char_traitsIcESaIcEEEbRf.cold+0x28>
    249e:	48 8b 44 24 50       	mov    0x50(%rsp),%rax
    24a3:	48 8d 70 01          	lea    0x1(%rax),%rsi
    24a7:	e8 34 fd ff ff       	call   21e0 <_ZdlPvm@plt>
    24ac:	48 8b 7c 24 20       	mov    0x20(%rsp),%rdi
    24b1:	4c 39 ef             	cmp    %r13,%rdi
    24b4:	74 0e                	je     24c4 <_ZN10arg_parser5parseENSt7__cxx1112basic_stringIcSt11char_traitsIcESaIcEEEbRf.cold+0x40>
    24b6:	48 8b 44 24 30       	mov    0x30(%rsp),%rax
    24bb:	48 8d 70 01          	lea    0x1(%rax),%rsi
    24bf:	e8 1c fd ff ff       	call   21e0 <_ZdlPvm@plt>
    24c4:	48 89 ef             	mov    %rbp,%rdi
    24c7:	49 83 ef 01          	sub    $0x1,%r15
    24cb:	0f 85 9c 00 00 00    	jne    256d <_ZN10arg_parser5parseENSt7__cxx1112basic_stringIcSt11char_traitsIcESaIcEEEbRf.cold+0xe9>
    24d1:	e8 ca fb ff ff       	call   20a0 <__cxa_begin_catch@plt>
    24d6:	80 7c 24 0c 00       	cmpb   $0x0,0xc(%rsp)
    24db:	0f 84 91 00 00 00    	je     2572 <_ZN10arg_parser5parseENSt7__cxx1112basic_stringIcSt11char_traitsIcESaIcEEEbRf.cold+0xee>
    24e1:	bf 10 00 00 00       	mov    $0x10,%edi
    24e6:	e8 e5 fb ff ff       	call   20d0 <__cxa_allocate_exception@plt>
    24eb:	4c 89 e2             	mov    %r12,%rdx
    24ee:	48 8d 35 6a bb 02 00 	lea    0x2bb6a(%rip),%rsi        # 2e05f <_IO_stdin_used+0x5f>
    24f5:	4c 89 f7             	mov    %r14,%rdi
    24f8:	48 89 c5             	mov    %rax,%rbp
    24fb:	e8 00 27 00 00       	call   4c00 <_ZStplIcSt11char_traitsIcESaIcEENSt7__cxx1112basic_stringIT_T0_T1_EEPKS5_RKS8_>
    2500:	4c 8d 64 24 40       	lea    0x40(%rsp),%r12
    2505:	48 8d 15 68 bb 02 00 	lea    0x2bb68(%rip),%rdx        # 2e074 <_IO_stdin_used+0x74>
    250c:	4c 89 f6             	mov    %r14,%rsi
    250f:	4c 89 e7             	mov    %r12,%rdi
    2512:	e8 c9 25 00 00       	call   4ae0 <_ZStplIcSt11char_traitsIcESaIcEENSt7__cxx1112basic_stringIT_T0_T1_EEOS8_PKS5_>
    2517:	4c 89 e6             	mov    %r12,%rsi
    251a:	48 89 ef             	mov    %rbp,%rdi
    251d:	e8 ce fe ff ff       	call   23f0 <_ZNSt16invalid_argumentC1ERKNSt7__cxx1112basic_stringIcSt11char_traitsIcESaIcEEE@plt>
    2522:	48 8b 7c 24 40       	mov    0x40(%rsp),%rdi
    2527:	48 8d 44 24 50       	lea    0x50(%rsp),%rax
    252c:	48 39 c7             	cmp    %rax,%rdi
    252f:	74 0e                	je     253f <_ZN10arg_parser5parseENSt7__cxx1112basic_stringIcSt11char_traitsIcESaIcEEEbRf.cold+0xbb>
    2531:	48 8b 44 24 50       	mov    0x50(%rsp),%rax
    2536:	48 8d 70 01          	lea    0x1(%rax),%rsi
    253a:	e8 a1 fc ff ff       	call   21e0 <_ZdlPvm@plt>
    253f:	48 8b 7c 24 20       	mov    0x20(%rsp),%rdi
    2544:	4c 39 ef             	cmp    %r13,%rdi
    2547:	74 0e                	je     2557 <_ZN10arg_parser5parseENSt7__cxx1112basic_stringIcSt11char_traitsIcESaIcEEEbRf.cold+0xd3>
    2549:	48 8b 44 24 30       	mov    0x30(%rsp),%rax
    254e:	48 8d 70 01          	lea    0x1(%rax),%rsi
    2552:	e8 89 fc ff ff       	call   21e0 <_ZdlPvm@plt>
    2557:	48 8b 15 72 2a 03 00 	mov    0x32a72(%rip),%rdx        # 34fd0 <_ZNSt16invalid_argumentD1Ev@GLIBCXX_3.4>
    255e:	48 8d 35 bb 27 03 00 	lea    0x327bb(%rip),%rsi        # 34d20 <_ZTISt16invalid_argument@GLIBCXX_3.4>
    2565:	48 89 ef             	mov    %rbp,%rdi
    2568:	e8 63 fe ff ff       	call   23d0 <__cxa_throw@plt>
    256d:	e8 8e fe ff ff       	call   2400 <_Unwind_Resume@plt>
    2572:	48 8b 44 24 68       	mov    0x68(%rsp),%rax
    2577:	64 48 2b 04 25 28 00 	sub    %fs:0x28,%rax
    257e:	00 00 
    2580:	75 13                	jne    2595 <_ZN10arg_parser5parseENSt7__cxx1112basic_stringIcSt11char_traitsIcESaIcEEEbRf.cold+0x111>
    2582:	48 83 c4 78          	add    $0x78,%rsp
    2586:	5b                   	pop    %rbx
    2587:	5d                   	pop    %rbp
    2588:	41 5c                	pop    %r12
    258a:	41 5d                	pop    %r13
    258c:	41 5e                	pop    %r14
    258e:	41 5f                	pop    %r15
    2590:	e9 1b fe ff ff       	jmp    23b0 <__cxa_end_catch@plt>
    2595:	e8 76 fc ff ff       	call   2210 <__stack_chk_fail@plt>
    259a:	48 89 c3             	mov    %rax,%rbx
    259d:	eb 15                	jmp    25b4 <_ZN10arg_parser5parseENSt7__cxx1112basic_stringIcSt11char_traitsIcESaIcEEEbRf.cold+0x130>
    259f:	48 89 c3             	mov    %rax,%rbx
    25a2:	48 8b 7c 24 20       	mov    0x20(%rsp),%rdi
    25a7:	4c 39 ef             	cmp    %r13,%rdi
    25aa:	75 3c                	jne    25e8 <_ZN10arg_parser5parseENSt7__cxx1112basic_stringIcSt11char_traitsIcESaIcEEEbRf.cold+0x164>
    25ac:	48 89 ef             	mov    %rbp,%rdi
    25af:	e8 cc fb ff ff       	call   2180 <__cxa_free_exception@plt>
    25b4:	e8 f7 fd ff ff       	call   23b0 <__cxa_end_catch@plt>
    25b9:	48 89 df             	mov    %rbx,%rdi
    25bc:	e8 3f fe ff ff       	call   2400 <_Unwind_Resume@plt>
    25c1:	48 89 c3             	mov    %rax,%rbx
    25c4:	eb e6                	jmp    25ac <_ZN10arg_parser5parseENSt7__cxx1112basic_stringIcSt11char_traitsIcESaIcEEEbRf.cold+0x128>
    25c6:	48 8b 7c 24 40       	mov    0x40(%rsp),%rdi
    25cb:	48 89 c3             	mov    %rax,%rbx
    25ce:	48 8d 44 24 50       	lea    0x50(%rsp),%rax
    25d3:	48 39 c7             	cmp    %rax,%rdi
    25d6:	74 ca                	je     25a2 <_ZN10arg_parser5parseENSt7__cxx1112basic_stringIcSt11char_traitsIcESaIcEEEbRf.cold+0x11e>
    25d8:	48 8b 44 24 50       	mov    0x50(%rsp),%rax
    25dd:	48 8d 70 01          	lea    0x1(%rax),%rsi
    25e1:	e8 fa fb ff ff       	call   21e0 <_ZdlPvm@plt>
    25e6:	eb ba                	jmp    25a2 <_ZN10arg_parser5parseENSt7__cxx1112basic_stringIcSt11char_traitsIcESaIcEEEbRf.cold+0x11e>
    25e8:	48 8b 44 24 30       	mov    0x30(%rsp),%rax
    25ed:	48 8d 70 01          	lea    0x1(%rax),%rsi
    25f1:	e8 ea fb ff ff       	call   21e0 <_ZdlPvm@plt>
    25f6:	eb b4                	jmp    25ac <_ZN10arg_parser5parseENSt7__cxx1112basic_stringIcSt11char_traitsIcESaIcEEEbRf.cold+0x128>

00000000000025f8 <_ZN10arg_parser5parseENSt7__cxx1112basic_stringIcSt11char_traitsIcESaIcEEEbRi.cold>:
    25f8:	83 3b 00             	cmpl   $0x0,(%rbx)
    25fb:	75 06                	jne    2603 <_ZN10arg_parser5parseENSt7__cxx1112basic_stringIcSt11char_traitsIcESaIcEEEbRi.cold+0xb>
    25fd:	8b 44 24 08          	mov    0x8(%rsp),%eax
    2601:	89 03                	mov    %eax,(%rbx)
    2603:	48 8b 7c 24 40       	mov    0x40(%rsp),%rdi
    2608:	48 8d 44 24 50       	lea    0x50(%rsp),%rax
    260d:	48 39 c7             	cmp    %rax,%rdi
    2610:	74 0e                	je     2620 <_ZN10arg_parser5parseENSt7__cxx1112basic_stringIcSt11char_traitsIcESaIcEEEbRi.cold+0x28>
    2612:	48 8b 44 24 50       	mov    0x50(%rsp),%rax
    2617:	48 8d 70 01          	lea    0x1(%rax),%rsi
    261b:	e8 c0 fb ff ff       	call   21e0 <_ZdlPvm@plt>
    2620:	48 8b 7c 24 20       	mov    0x20(%rsp),%rdi
    2625:	4c 39 f7             	cmp    %r14,%rdi
    2628:	74 0e                	je     2638 <_ZN10arg_parser5parseENSt7__cxx1112basic_stringIcSt11char_traitsIcESaIcEEEbRi.cold+0x40>
    262a:	48 8b 44 24 30       	mov    0x30(%rsp),%rax
    262f:	48 8d 70 01          	lea    0x1(%rax),%rsi
    2633:	e8 a8 fb ff ff       	call   21e0 <_ZdlPvm@plt>
    2638:	48 89 ef             	mov    %rbp,%rdi
    263b:	49 83 ef 01          	sub    $0x1,%r15
    263f:	0f 85 9c 00 00 00    	jne    26e1 <_ZN10arg_parser5parseENSt7__cxx1112basic_stringIcSt11char_traitsIcESaIcEEEbRi.cold+0xe9>
    2645:	e8 56 fa ff ff       	call   20a0 <__cxa_begin_catch@plt>
    264a:	80 7c 24 0c 00       	cmpb   $0x0,0xc(%rsp)
    264f:	0f 84 91 00 00 00    	je     26e6 <_ZN10arg_parser5parseENSt7__cxx1112basic_stringIcSt11char_traitsIcESaIcEEEbRi.cold+0xee>
    2655:	bf 10 00 00 00       	mov    $0x10,%edi
    265a:	e8 71 fa ff ff       	call   20d0 <__cxa_allocate_exception@plt>
    265f:	4c 89 e2             	mov    %r12,%rdx
    2662:	48 8d 35 f6 b9 02 00 	lea    0x2b9f6(%rip),%rsi        # 2e05f <_IO_stdin_used+0x5f>
    2669:	4c 89 ef             	mov    %r13,%rdi
    266c:	48 89 c5             	mov    %rax,%rbp
    266f:	e8 8c 25 00 00       	call   4c00 <_ZStplIcSt11char_traitsIcESaIcEENSt7__cxx1112basic_stringIT_T0_T1_EEPKS5_RKS8_>
    2674:	4c 8d 64 24 40       	lea    0x40(%rsp),%r12
    2679:	48 8d 15 f4 b9 02 00 	lea    0x2b9f4(%rip),%rdx        # 2e074 <_IO_stdin_used+0x74>
    2680:	4c 89 ee             	mov    %r13,%rsi
    2683:	4c 89 e7             	mov    %r12,%rdi
    2686:	e8 55 24 00 00       	call   4ae0 <_ZStplIcSt11char_traitsIcESaIcEENSt7__cxx1112basic_stringIT_T0_T1_EEOS8_PKS5_>
    268b:	4c 89 e6             	mov    %r12,%rsi
    268e:	48 89 ef             	mov    %rbp,%rdi
    2691:	e8 5a fd ff ff       	call   23f0 <_ZNSt16invalid_argumentC1ERKNSt7__cxx1112basic_stringIcSt11char_traitsIcESaIcEEE@plt>
    2696:	48 8b 7c 24 40       	mov    0x40(%rsp),%rdi
    269b:	48 8d 44 24 50       	lea    0x50(%rsp),%rax
    26a0:	48 39 c7             	cmp    %rax,%rdi
    26a3:	74 0e                	je     26b3 <_ZN10arg_parser5parseENSt7__cxx1112basic_stringIcSt11char_traitsIcESaIcEEEbRi.cold+0xbb>
    26a5:	48 8b 44 24 50       	mov    0x50(%rsp),%rax
    26aa:	48 8d 70 01          	lea    0x1(%rax),%rsi
    26ae:	e8 2d fb ff ff       	call   21e0 <_ZdlPvm@plt>
    26b3:	48 8b 7c 24 20       	mov    0x20(%rsp),%rdi
    26b8:	4c 39 f7             	cmp    %r14,%rdi
    26bb:	74 0e                	je     26cb <_ZN10arg_parser5parseENSt7__cxx1112basic_stringIcSt11char_traitsIcESaIcEEEbRi.cold+0xd3>
    26bd:	48 8b 44 24 30       	mov    0x30(%rsp),%rax
    26c2:	48 8d 70 01          	lea    0x1(%rax),%rsi
    26c6:	e8 15 fb ff ff       	call   21e0 <_ZdlPvm@plt>
    26cb:	48 8b 15 fe 28 03 00 	mov    0x328fe(%rip),%rdx        # 34fd0 <_ZNSt16invalid_argumentD1Ev@GLIBCXX_3.4>
    26d2:	48 8d 35 47 26 03 00 	lea    0x32647(%rip),%rsi        # 34d20 <_ZTISt16invalid_argument@GLIBCXX_3.4>
    26d9:	48 89 ef             	mov    %rbp,%rdi
    26dc:	e8 ef fc ff ff       	call   23d0 <__cxa_throw@plt>
    26e1:	e8 1a fd ff ff       	call   2400 <_Unwind_Resume@plt>
    26e6:	48 8b 44 24 68       	mov    0x68(%rsp),%rax
    26eb:	64 48 2b 04 25 28 00 	sub    %fs:0x28,%rax
    26f2:	00 00 
    26f4:	75 13                	jne    2709 <_ZN10arg_parser5parseENSt7__cxx1112basic_stringIcSt11char_traitsIcESaIcEEEbRi.cold+0x111>
    26f6:	48 83 c4 78          	add    $0x78,%rsp
    26fa:	5b                   	pop    %rbx
    26fb:	5d                   	pop    %rbp
    26fc:	41 5c                	pop    %r12
    26fe:	41 5d                	pop    %r13
    2700:	41 5e                	pop    %r14
    2702:	41 5f                	pop    %r15
    2704:	e9 a7 fc ff ff       	jmp    23b0 <__cxa_end_catch@plt>
    2709:	e8 02 fb ff ff       	call   2210 <__stack_chk_fail@plt>
    270e:	48 89 c3             	mov    %rax,%rbx
    2711:	eb 15                	jmp    2728 <_ZN10arg_parser5parseENSt7__cxx1112basic_stringIcSt11char_traitsIcESaIcEEEbRi.cold+0x130>
    2713:	48 89 c3             	mov    %rax,%rbx
    2716:	48 8b 7c 24 20       	mov    0x20(%rsp),%rdi
    271b:	4c 39 f7             	cmp    %r14,%rdi
    271e:	75 3c                	jne    275c <_ZN10arg_parser5parseENSt7__cxx1112basic_stringIcSt11char_traitsIcESaIcEEEbRi.cold+0x164>
    2720:	48 89 ef             	mov    %rbp,%rdi
    2723:	e8 58 fa ff ff       	call   2180 <__cxa_free_exception@plt>
    2728:	e8 83 fc ff ff       	call   23b0 <__cxa_end_catch@plt>
    272d:	48 89 df             	mov    %rbx,%rdi
    2730:	e8 cb fc ff ff       	call   2400 <_Unwind_Resume@plt>
    2735:	48 89 c3             	mov    %rax,%rbx
    2738:	eb e6                	jmp    2720 <_ZN10arg_parser5parseENSt7__cxx1112basic_stringIcSt11char_traitsIcESaIcEEEbRi.cold+0x128>
    273a:	48 8b 7c 24 40       	mov    0x40(%rsp),%rdi
    273f:	48 89 c3             	mov    %rax,%rbx
    2742:	48 8d 44 24 50       	lea    0x50(%rsp),%rax
    2747:	48 39 c7             	cmp    %rax,%rdi
    274a:	74 ca                	je     2716 <_ZN10arg_parser5parseENSt7__cxx1112basic_stringIcSt11char_traitsIcESaIcEEEbRi.cold+0x11e>
    274c:	48 8b 44 24 50       	mov    0x50(%rsp),%rax
    2751:	48 8d 70 01          	lea    0x1(%rax),%rsi
    2755:	e8 86 fa ff ff       	call   21e0 <_ZdlPvm@plt>
    275a:	eb ba                	jmp    2716 <_ZN10arg_parser5parseENSt7__cxx1112basic_stringIcSt11char_traitsIcESaIcEEEbRi.cold+0x11e>
    275c:	48 8b 44 24 30       	mov    0x30(%rsp),%rax
    2761:	48 8d 70 01          	lea    0x1(%rax),%rsi
    2765:	e8 76 fa ff ff       	call   21e0 <_ZdlPvm@plt>
    276a:	eb b4                	jmp    2720 <_ZN10arg_parser5parseENSt7__cxx1112basic_stringIcSt11char_traitsIcESaIcEEEbRi.cold+0x128>

000000000000276c <_ZN10arg_parser5parseENSt7__cxx1112basic_stringIcSt11char_traitsIcESaIcEEEbRS5_.cold>:
    276c:	bf 10 00 00 00       	mov    $0x10,%edi
    2771:	e8 5a f9 ff ff       	call   20d0 <__cxa_allocate_exception@plt>
    2776:	4c 89 e2             	mov    %r12,%rdx
    2779:	48 8d 35 df b8 02 00 	lea    0x2b8df(%rip),%rsi        # 2e05f <_IO_stdin_used+0x5f>
    2780:	4c 89 ff             	mov    %r15,%rdi
    2783:	48 89 c3             	mov    %rax,%rbx
    2786:	e8 75 24 00 00       	call   4c00 <_ZStplIcSt11char_traitsIcESaIcEENSt7__cxx1112basic_stringIT_T0_T1_EEPKS5_RKS8_>
    278b:	48 8d 15 e2 b8 02 00 	lea    0x2b8e2(%rip),%rdx        # 2e074 <_IO_stdin_used+0x74>
    2792:	4c 89 fe             	mov    %r15,%rsi
    2795:	4c 89 f7             	mov    %r14,%rdi
    2798:	e8 43 23 00 00       	call   4ae0 <_ZStplIcSt11char_traitsIcESaIcEENSt7__cxx1112basic_stringIT_T0_T1_EEOS8_PKS5_>
    279d:	4c 89 f6             	mov    %r14,%rsi
    27a0:	48 89 df             	mov    %rbx,%rdi
    27a3:	e8 48 fc ff ff       	call   23f0 <_ZNSt16invalid_argumentC1ERKNSt7__cxx1112basic_stringIcSt11char_traitsIcESaIcEEE@plt>
    27a8:	48 8b 7c 24 30       	mov    0x30(%rsp),%rdi
    27ad:	4c 39 ef             	cmp    %r13,%rdi
    27b0:	74 0e                	je     27c0 <_ZN10arg_parser5parseENSt7__cxx1112basic_stringIcSt11char_traitsIcESaIcEEEbRS5_.cold+0x54>
    27b2:	48 8b 44 24 40       	mov    0x40(%rsp),%rax
    27b7:	48 8d 70 01          	lea    0x1(%rax),%rsi
    27bb:	e8 20 fa ff ff       	call   21e0 <_ZdlPvm@plt>
    27c0:	48 8b 7c 24 10       	mov    0x10(%rsp),%rdi
    27c5:	48 39 ef             	cmp    %rbp,%rdi
    27c8:	74 0e                	je     27d8 <_ZN10arg_parser5parseENSt7__cxx1112basic_stringIcSt11char_traitsIcESaIcEEEbRS5_.cold+0x6c>
    27ca:	48 8b 44 24 20       	mov    0x20(%rsp),%rax
    27cf:	48 8d 70 01          	lea    0x1(%rax),%rsi
    27d3:	e8 08 fa ff ff       	call   21e0 <_ZdlPvm@plt>
    27d8:	48 8b 15 f1 27 03 00 	mov    0x327f1(%rip),%rdx        # 34fd0 <_ZNSt16invalid_argumentD1Ev@GLIBCXX_3.4>
    27df:	48 8d 35 3a 25 03 00 	lea    0x3253a(%rip),%rsi        # 34d20 <_ZTISt16invalid_argument@GLIBCXX_3.4>
    27e6:	48 89 df             	mov    %rbx,%rdi
    27e9:	e8 e2 fb ff ff       	call   23d0 <__cxa_throw@plt>
    27ee:	48 8b 7c 24 10       	mov    0x10(%rsp),%rdi
    27f3:	48 39 ef             	cmp    %rbp,%rdi
    27f6:	74 0e                	je     2806 <_ZN10arg_parser5parseENSt7__cxx1112basic_stringIcSt11char_traitsIcESaIcEEEbRS5_.cold+0x9a>
    27f8:	48 8b 44 24 20       	mov    0x20(%rsp),%rax
    27fd:	48 8d 70 01          	lea    0x1(%rax),%rsi
    2801:	e8 da f9 ff ff       	call   21e0 <_ZdlPvm@plt>
    2806:	4c 89 e7             	mov    %r12,%rdi
    2809:	e8 f2 fb ff ff       	call   2400 <_Unwind_Resume@plt>
    280e:	48 8b 7c 24 30       	mov    0x30(%rsp),%rdi
    2813:	49 89 c4             	mov    %rax,%r12
    2816:	4c 39 ef             	cmp    %r13,%rdi
    2819:	74 0e                	je     2829 <_ZN10arg_parser5parseENSt7__cxx1112basic_stringIcSt11char_traitsIcESaIcEEEbRS5_.cold+0xbd>
    281b:	48 8b 44 24 40       	mov    0x40(%rsp),%rax
    2820:	48 8d 70 01          	lea    0x1(%rax),%rsi
    2824:	e8 b7 f9 ff ff       	call   21e0 <_ZdlPvm@plt>
    2829:	48 8b 7c 24 10       	mov    0x10(%rsp),%rdi
    282e:	48 39 ef             	cmp    %rbp,%rdi
    2831:	74 0e                	je     2841 <_ZN10arg_parser5parseENSt7__cxx1112basic_stringIcSt11char_traitsIcESaIcEEEbRS5_.cold+0xd5>
    2833:	48 8b 44 24 20       	mov    0x20(%rsp),%rax
    2838:	48 8d 70 01          	lea    0x1(%rax),%rsi
    283c:	e8 9f f9 ff ff       	call   21e0 <_ZdlPvm@plt>
    2841:	48 89 df             	mov    %rbx,%rdi
    2844:	e8 37 f9 ff ff       	call   2180 <__cxa_free_exception@plt>
    2849:	eb bb                	jmp    2806 <_ZN10arg_parser5parseENSt7__cxx1112basic_stringIcSt11char_traitsIcESaIcEEEbRS5_.cold+0x9a>
    284b:	49 89 c4             	mov    %rax,%r12
    284e:	eb d9                	jmp    2829 <_ZN10arg_parser5parseENSt7__cxx1112basic_stringIcSt11char_traitsIcESaIcEEEbRS5_.cold+0xbd>
    2850:	49 89 c4             	mov    %rax,%r12
    2853:	eb ec                	jmp    2841 <_ZN10arg_parser5parseENSt7__cxx1112basic_stringIcSt11char_traitsIcESaIcEEEbRS5_.cold+0xd5>
    2855:	90                   	nop

0000000000002856 <_ZN10arg_parser5parseENSt7__cxx1112basic_stringIcSt11char_traitsIcESaIcEEEbRb.cold>:
    2856:	bf 10 00 00 00       	mov    $0x10,%edi
    285b:	48 8d 6c 24 30       	lea    0x30(%rsp),%rbp
    2860:	e8 6b f8 ff ff       	call   20d0 <__cxa_allocate_exception@plt>
    2865:	4c 89 e2             	mov    %r12,%rdx
    2868:	48 8d 35 f0 b7 02 00 	lea    0x2b7f0(%rip),%rsi        # 2e05f <_IO_stdin_used+0x5f>
    286f:	48 89 ef             	mov    %rbp,%rdi
    2872:	49 89 c5             	mov    %rax,%r13
    2875:	e8 86 23 00 00       	call   4c00 <_ZStplIcSt11char_traitsIcESaIcEENSt7__cxx1112basic_stringIT_T0_T1_EEPKS5_RKS8_>
    287a:	48 8d 15 f3 b7 02 00 	lea    0x2b7f3(%rip),%rdx        # 2e074 <_IO_stdin_used+0x74>
    2881:	48 89 ee             	mov    %rbp,%rsi
    2884:	4c 89 ff             	mov    %r15,%rdi
    2887:	e8 54 22 00 00       	call   4ae0 <_ZStplIcSt11char_traitsIcESaIcEENSt7__cxx1112basic_stringIT_T0_T1_EEOS8_PKS5_>
    288c:	4c 89 fe             	mov    %r15,%rsi
    288f:	4c 89 ef             	mov    %r13,%rdi
    2892:	e8 59 fb ff ff       	call   23f0 <_ZNSt16invalid_argumentC1ERKNSt7__cxx1112basic_stringIcSt11char_traitsIcESaIcEEE@plt>
    2897:	48 8b 7c 24 50       	mov    0x50(%rsp),%rdi
    289c:	4c 39 f7             	cmp    %r14,%rdi
    289f:	74 0e                	je     28af <_ZN10arg_parser5parseENSt7__cxx1112basic_stringIcSt11char_traitsIcESaIcEEEbRb.cold+0x59>
    28a1:	48 8b 44 24 60       	mov    0x60(%rsp),%rax
    28a6:	48 8d 70 01          	lea    0x1(%rax),%rsi
    28aa:	e8 31 f9 ff ff       	call   21e0 <_ZdlPvm@plt>
    28af:	48 8b 7c 24 30       	mov    0x30(%rsp),%rdi
    28b4:	48 8d 44 24 40       	lea    0x40(%rsp),%rax
    28b9:	48 39 c7             	cmp    %rax,%rdi
    28bc:	74 0e                	je     28cc <_ZN10arg_parser5parseENSt7__cxx1112basic_stringIcSt11char_traitsIcESaIcEEEbRb.cold+0x76>
    28be:	48 8b 44 24 40       	mov    0x40(%rsp),%rax
    28c3:	48 8d 70 01          	lea    0x1(%rax),%rsi
    28c7:	e8 14 f9 ff ff       	call   21e0 <_ZdlPvm@plt>
    28cc:	48 8b 15 fd 26 03 00 	mov    0x326fd(%rip),%rdx        # 34fd0 <_ZNSt16invalid_argumentD1Ev@GLIBCXX_3.4>
    28d3:	48 8d 35 46 24 03 00 	lea    0x32446(%rip),%rsi        # 34d20 <_ZTISt16invalid_argument@GLIBCXX_3.4>
    28da:	4c 89 ef             	mov    %r13,%rdi
    28dd:	e8 ee fa ff ff       	call   23d0 <__cxa_throw@plt>
    28e2:	48 8b 7c 24 50       	mov    0x50(%rsp),%rdi
    28e7:	4c 39 f7             	cmp    %r14,%rdi
    28ea:	74 0e                	je     28fa <_ZN10arg_parser5parseENSt7__cxx1112basic_stringIcSt11char_traitsIcESaIcEEEbRb.cold+0xa4>
    28ec:	48 8b 44 24 60       	mov    0x60(%rsp),%rax
    28f1:	48 8d 70 01          	lea    0x1(%rax),%rsi
    28f5:	e8 e6 f8 ff ff       	call   21e0 <_ZdlPvm@plt>
    28fa:	48 89 ef             	mov    %rbp,%rdi
    28fd:	e8 fe fa ff ff       	call   2400 <_Unwind_Resume@plt>
    2902:	48 89 c5             	mov    %rax,%rbp
    2905:	48 8b 7c 24 10       	mov    0x10(%rsp),%rdi
    290a:	48 8d 44 24 20       	lea    0x20(%rsp),%rax
    290f:	48 39 c7             	cmp    %rax,%rdi
    2912:	74 0e                	je     2922 <_ZN10arg_parser5parseENSt7__cxx1112basic_stringIcSt11char_traitsIcESaIcEEEbRb.cold+0xcc>
    2914:	48 8b 44 24 20       	mov    0x20(%rsp),%rax
    2919:	48 8d 70 01          	lea    0x1(%rax),%rsi
    291d:	e8 be f8 ff ff       	call   21e0 <_ZdlPvm@plt>
    2922:	48 89 ef             	mov    %rbp,%rdi
    2925:	e8 d6 fa ff ff       	call   2400 <_Unwind_Resume@plt>
    292a:	48 8b 7c 24 50       	mov    0x50(%rsp),%rdi
    292f:	48 89 c3             	mov    %rax,%rbx
    2932:	4c 39 f7             	cmp    %r14,%rdi
    2935:	74 0e                	je     2945 <_ZN10arg_parser5parseENSt7__cxx1112basic_stringIcSt11char_traitsIcESaIcEEEbRb.cold+0xef>
    2937:	48 8b 44 24 60       	mov    0x60(%rsp),%rax
    293c:	48 8d 70 01          	lea    0x1(%rax),%rsi
    2940:	e8 9b f8 ff ff       	call   21e0 <_ZdlPvm@plt>
    2945:	48 8b 7c 24 30       	mov    0x30(%rsp),%rdi
    294a:	48 8d 44 24 40       	lea    0x40(%rsp),%rax
    294f:	48 39 c7             	cmp    %rax,%rdi
    2952:	74 0e                	je     2962 <_ZN10arg_parser5parseENSt7__cxx1112basic_stringIcSt11char_traitsIcESaIcEEEbRb.cold+0x10c>
    2954:	48 8b 44 24 40       	mov    0x40(%rsp),%rax
    2959:	48 8d 70 01          	lea    0x1(%rax),%rsi
    295d:	e8 7e f8 ff ff       	call   21e0 <_ZdlPvm@plt>
    2962:	4c 89 ef             	mov    %r13,%rdi
    2965:	48 89 dd             	mov    %rbx,%rbp
    2968:	e8 13 f8 ff ff       	call   2180 <__cxa_free_exception@plt>
    296d:	eb 96                	jmp    2905 <_ZN10arg_parser5parseENSt7__cxx1112basic_stringIcSt11char_traitsIcESaIcEEEbRb.cold+0xaf>
    296f:	48 89 c3             	mov    %rax,%rbx
    2972:	eb d1                	jmp    2945 <_ZN10arg_parser5parseENSt7__cxx1112basic_stringIcSt11char_traitsIcESaIcEEEbRb.cold+0xef>
    2974:	48 89 c3             	mov    %rax,%rbx
    2977:	eb e9                	jmp    2962 <_ZN10arg_parser5parseENSt7__cxx1112basic_stringIcSt11char_traitsIcESaIcEEEbRb.cold+0x10c>
    2979:	90                   	nop

000000000000297a <_ZN10arg_parser8parseStrENSt7__cxx1112basic_stringIcSt11char_traitsIcESaIcEEEbSt8functionIFvRS5_EE.cold>:
    297a:	bf 10 00 00 00       	mov    $0x10,%edi
    297f:	48 8d 6c 24 30       	lea    0x30(%rsp),%rbp
    2984:	e8 47 f7 ff ff       	call   20d0 <__cxa_allocate_exception@plt>
    2989:	4c 89 e2             	mov    %r12,%rdx
    298c:	48 8d 35 cc b6 02 00 	lea    0x2b6cc(%rip),%rsi        # 2e05f <_IO_stdin_used+0x5f>
    2993:	48 89 ef             	mov    %rbp,%rdi
    2996:	49 89 c6             	mov    %rax,%r14
    2999:	e8 62 22 00 00       	call   4c00 <_ZStplIcSt11char_traitsIcESaIcEENSt7__cxx1112basic_stringIT_T0_T1_EEPKS5_RKS8_>
    299e:	48 8d 15 cf b6 02 00 	lea    0x2b6cf(%rip),%rdx        # 2e074 <_IO_stdin_used+0x74>
    29a5:	48 89 ee             	mov    %rbp,%rsi
    29a8:	48 89 df             	mov    %rbx,%rdi
    29ab:	e8 30 21 00 00       	call   4ae0 <_ZStplIcSt11char_traitsIcESaIcEENSt7__cxx1112basic_stringIT_T0_T1_EEOS8_PKS5_>
    29b0:	48 89 de             	mov    %rbx,%rsi
    29b3:	4c 89 f7             	mov    %r14,%rdi
    29b6:	e8 35 fa ff ff       	call   23f0 <_ZNSt16invalid_argumentC1ERKNSt7__cxx1112basic_stringIcSt11char_traitsIcESaIcEEE@plt>
    29bb:	48 8b 7c 24 50       	mov    0x50(%rsp),%rdi
    29c0:	4c 39 ef             	cmp    %r13,%rdi
    29c3:	74 0e                	je     29d3 <_ZN10arg_parser8parseStrENSt7__cxx1112basic_stringIcSt11char_traitsIcESaIcEEEbSt8functionIFvRS5_EE.cold+0x59>
    29c5:	48 8b 44 24 60       	mov    0x60(%rsp),%rax
    29ca:	48 8d 70 01          	lea    0x1(%rax),%rsi
    29ce:	e8 0d f8 ff ff       	call   21e0 <_ZdlPvm@plt>
    29d3:	48 8b 7c 24 30       	mov    0x30(%rsp),%rdi
    29d8:	48 8d 44 24 40       	lea    0x40(%rsp),%rax
    29dd:	48 39 c7             	cmp    %rax,%rdi
    29e0:	74 0e                	je     29f0 <_ZN10arg_parser8parseStrENSt7__cxx1112basic_stringIcSt11char_traitsIcESaIcEEEbSt8functionIFvRS5_EE.cold+0x76>
    29e2:	48 8b 44 24 40       	mov    0x40(%rsp),%rax
    29e7:	48 8d 70 01          	lea    0x1(%rax),%rsi
    29eb:	e8 f0 f7 ff ff       	call   21e0 <_ZdlPvm@plt>
    29f0:	48 8b 15 d9 25 03 00 	mov    0x325d9(%rip),%rdx        # 34fd0 <_ZNSt16invalid_argumentD1Ev@GLIBCXX_3.4>
    29f7:	48 8d 35 22 23 03 00 	lea    0x32322(%rip),%rsi        # 34d20 <_ZTISt16invalid_argument@GLIBCXX_3.4>
    29fe:	4c 89 f7             	mov    %r14,%rdi
    2a01:	e8 ca f9 ff ff       	call   23d0 <__cxa_throw@plt>
    2a06:	48 8b 7c 24 50       	mov    0x50(%rsp),%rdi
    2a0b:	4c 39 ef             	cmp    %r13,%rdi
    2a0e:	74 0e                	je     2a1e <_ZN10arg_parser8parseStrENSt7__cxx1112basic_stringIcSt11char_traitsIcESaIcEEEbSt8functionIFvRS5_EE.cold+0xa4>
    2a10:	48 8b 44 24 60       	mov    0x60(%rsp),%rax
    2a15:	48 8d 70 01          	lea    0x1(%rax),%rsi
    2a19:	e8 c2 f7 ff ff       	call   21e0 <_ZdlPvm@plt>
    2a1e:	48 89 ef             	mov    %rbp,%rdi
    2a21:	e8 da f9 ff ff       	call   2400 <_Unwind_Resume@plt>
    2a26:	48 89 c5             	mov    %rax,%rbp
    2a29:	48 8b 7c 24 10       	mov    0x10(%rsp),%rdi
    2a2e:	48 8d 44 24 20       	lea    0x20(%rsp),%rax
    2a33:	48 39 c7             	cmp    %rax,%rdi
    2a36:	74 e6                	je     2a1e <_ZN10arg_parser8parseStrENSt7__cxx1112basic_stringIcSt11char_traitsIcESaIcEEEbSt8functionIFvRS5_EE.cold+0xa4>
    2a38:	48 8b 44 24 20       	mov    0x20(%rsp),%rax
    2a3d:	48 8d 70 01          	lea    0x1(%rax),%rsi
    2a41:	e8 9a f7 ff ff       	call   21e0 <_ZdlPvm@plt>
    2a46:	eb d6                	jmp    2a1e <_ZN10arg_parser8parseStrENSt7__cxx1112basic_stringIcSt11char_traitsIcESaIcEEEbSt8functionIFvRS5_EE.cold+0xa4>
    2a48:	48 8b 7c 24 50       	mov    0x50(%rsp),%rdi
    2a4d:	48 89 c3             	mov    %rax,%rbx
    2a50:	4c 39 ef             	cmp    %r13,%rdi
    2a53:	74 0e                	je     2a63 <_ZN10arg_parser8parseStrENSt7__cxx1112basic_stringIcSt11char_traitsIcESaIcEEEbSt8functionIFvRS5_EE.cold+0xe9>
    2a55:	48 8b 44 24 60       	mov    0x60(%rsp),%rax
    2a5a:	48 8d 70 01          	lea    0x1(%rax),%rsi
    2a5e:	e8 7d f7 ff ff       	call   21e0 <_ZdlPvm@plt>
    2a63:	48 8b 7c 24 30       	mov    0x30(%rsp),%rdi
    2a68:	48 8d 44 24 40       	lea    0x40(%rsp),%rax
    2a6d:	48 39 c7             	cmp    %rax,%rdi
    2a70:	74 0e                	je     2a80 <_ZN10arg_parser8parseStrENSt7__cxx1112basic_stringIcSt11char_traitsIcESaIcEEEbSt8functionIFvRS5_EE.cold+0x106>
    2a72:	48 8b 44 24 40       	mov    0x40(%rsp),%rax
    2a77:	48 8d 70 01          	lea    0x1(%rax),%rsi
    2a7b:	e8 60 f7 ff ff       	call   21e0 <_ZdlPvm@plt>
    2a80:	4c 89 f7             	mov    %r14,%rdi
    2a83:	48 89 dd             	mov    %rbx,%rbp
    2a86:	e8 f5 f6 ff ff       	call   2180 <__cxa_free_exception@plt>
    2a8b:	eb 9c                	jmp    2a29 <_ZN10arg_parser8parseStrENSt7__cxx1112basic_stringIcSt11char_traitsIcESaIcEEEbSt8functionIFvRS5_EE.cold+0xaf>
    2a8d:	48 89 c3             	mov    %rax,%rbx
    2a90:	eb d1                	jmp    2a63 <_ZN10arg_parser8parseStrENSt7__cxx1112basic_stringIcSt11char_traitsIcESaIcEEEbSt8functionIFvRS5_EE.cold+0xe9>
    2a92:	48 89 c3             	mov    %rax,%rbx
    2a95:	eb e9                	jmp    2a80 <_ZN10arg_parser8parseStrENSt7__cxx1112basic_stringIcSt11char_traitsIcESaIcEEEbSt8functionIFvRS5_EE.cold+0x106>
    2a97:	90                   	nop

0000000000002a98 <_ZN10arg_parser10parseFloatENSt7__cxx1112basic_stringIcSt11char_traitsIcESaIcEEEbSt8functionIFvfEE.cold>:
    2a98:	83 3b 00             	cmpl   $0x0,(%rbx)
    2a9b:	0f 84 e1 00 00 00    	je     2b82 <_ZN10arg_parser10parseFloatENSt7__cxx1112basic_stringIcSt11char_traitsIcESaIcEEEbSt8functionIFvfEE.cold+0xea>
    2aa1:	48 89 c3             	mov    %rax,%rbx
    2aa4:	48 8b 7c 24 40       	mov    0x40(%rsp),%rdi
    2aa9:	48 8d 44 24 50       	lea    0x50(%rsp),%rax
    2aae:	48 39 c7             	cmp    %rax,%rdi
    2ab1:	74 0e                	je     2ac1 <_ZN10arg_parser10parseFloatENSt7__cxx1112basic_stringIcSt11char_traitsIcESaIcEEEbSt8functionIFvfEE.cold+0x29>
    2ab3:	48 8b 44 24 50       	mov    0x50(%rsp),%rax
    2ab8:	48 8d 70 01          	lea    0x1(%rax),%rsi
    2abc:	e8 1f f7 ff ff       	call   21e0 <_ZdlPvm@plt>
    2ac1:	48 8b 7c 24 20       	mov    0x20(%rsp),%rdi
    2ac6:	4c 39 f7             	cmp    %r14,%rdi
    2ac9:	74 0e                	je     2ad9 <_ZN10arg_parser10parseFloatENSt7__cxx1112basic_stringIcSt11char_traitsIcESaIcEEEbSt8functionIFvfEE.cold+0x41>
    2acb:	48 8b 44 24 30       	mov    0x30(%rsp),%rax
    2ad0:	48 8d 70 01          	lea    0x1(%rax),%rsi
    2ad4:	e8 07 f7 ff ff       	call   21e0 <_ZdlPvm@plt>
    2ad9:	48 89 df             	mov    %rbx,%rdi
    2adc:	48 83 ed 01          	sub    $0x1,%rbp
    2ae0:	0f 85 a7 00 00 00    	jne    2b8d <_ZN10arg_parser10parseFloatENSt7__cxx1112basic_stringIcSt11char_traitsIcESaIcEEEbSt8functionIFvfEE.cold+0xf5>
    2ae6:	e8 b5 f5 ff ff       	call   20a0 <__cxa_begin_catch@plt>
    2aeb:	80 7c 24 0c 00       	cmpb   $0x0,0xc(%rsp)
    2af0:	0f 84 9c 00 00 00    	je     2b92 <_ZN10arg_parser10parseFloatENSt7__cxx1112basic_stringIcSt11char_traitsIcESaIcEEEbSt8functionIFvfEE.cold+0xfa>
    2af6:	bf 10 00 00 00       	mov    $0x10,%edi
    2afb:	e8 d0 f5 ff ff       	call   20d0 <__cxa_allocate_exception@plt>
    2b00:	4c 89 e2             	mov    %r12,%rdx
    2b03:	48 8d 35 55 b5 02 00 	lea    0x2b555(%rip),%rsi        # 2e05f <_IO_stdin_used+0x5f>
    2b0a:	4c 89 ef             	mov    %r13,%rdi
    2b0d:	48 89 c5             	mov    %rax,%rbp
    2b10:	e8 eb 20 00 00       	call   4c00 <_ZStplIcSt11char_traitsIcESaIcEENSt7__cxx1112basic_stringIT_T0_T1_EEPKS5_RKS8_>
    2b15:	4c 8d 64 24 40       	lea    0x40(%rsp),%r12
    2b1a:	48 8d 15 53 b5 02 00 	lea    0x2b553(%rip),%rdx        # 2e074 <_IO_stdin_used+0x74>
    2b21:	4c 89 ee             	mov    %r13,%rsi
    2b24:	4c 89 e7             	mov    %r12,%rdi
    2b27:	e8 b4 1f 00 00       	call   4ae0 <_ZStplIcSt11char_traitsIcESaIcEENSt7__cxx1112basic_stringIT_T0_T1_EEOS8_PKS5_>
    2b2c:	4c 89 e6             	mov    %r12,%rsi
    2b2f:	48 89 ef             	mov    %rbp,%rdi
    2b32:	e8 b9 f8 ff ff       	call   23f0 <_ZNSt16invalid_argumentC1ERKNSt7__cxx1112basic_stringIcSt11char_traitsIcESaIcEEE@plt>
    2b37:	48 8b 7c 24 40       	mov    0x40(%rsp),%rdi
    2b3c:	48 8d 44 24 50       	lea    0x50(%rsp),%rax
    2b41:	48 39 c7             	cmp    %rax,%rdi
    2b44:	74 0e                	je     2b54 <_ZN10arg_parser10parseFloatENSt7__cxx1112basic_stringIcSt11char_traitsIcESaIcEEEbSt8functionIFvfEE.cold+0xbc>
    2b46:	48 8b 44 24 50       	mov    0x50(%rsp),%rax
    2b4b:	48 8d 70 01          	lea    0x1(%rax),%rsi
    2b4f:	e8 8c f6 ff ff       	call   21e0 <_ZdlPvm@plt>
    2b54:	48 8b 7c 24 20       	mov    0x20(%rsp),%rdi
    2b59:	4c 39 f7             	cmp    %r14,%rdi
    2b5c:	74 0e                	je     2b6c <_ZN10arg_parser10parseFloatENSt7__cxx1112basic_stringIcSt11char_traitsIcESaIcEEEbSt8functionIFvfEE.cold+0xd4>
    2b5e:	48 8b 44 24 30       	mov    0x30(%rsp),%rax
    2b63:	48 8d 70 01          	lea    0x1(%rax),%rsi
    2b67:	e8 74 f6 ff ff       	call   21e0 <_ZdlPvm@plt>
    2b6c:	48 8b 15 5d 24 03 00 	mov    0x3245d(%rip),%rdx        # 34fd0 <_ZNSt16invalid_argumentD1Ev@GLIBCXX_3.4>
    2b73:	48 8d 35 a6 21 03 00 	lea    0x321a6(%rip),%rsi        # 34d20 <_ZTISt16invalid_argument@GLIBCXX_3.4>
    2b7a:	48 89 ef             	mov    %rbp,%rdi
    2b7d:	e8 4e f8 ff ff       	call   23d0 <__cxa_throw@plt>
    2b82:	8b 4c 24 08          	mov    0x8(%rsp),%ecx
    2b86:	89 0b                	mov    %ecx,(%rbx)
    2b88:	e9 14 ff ff ff       	jmp    2aa1 <_ZN10arg_parser10parseFloatENSt7__cxx1112basic_stringIcSt11char_traitsIcESaIcEEEbSt8functionIFvfEE.cold+0x9>
    2b8d:	e8 6e f8 ff ff       	call   2400 <_Unwind_Resume@plt>
    2b92:	e8 19 f8 ff ff       	call   23b0 <__cxa_end_catch@plt>
    2b97:	e9 c1 17 00 00       	jmp    435d <_ZN10arg_parser10parseFloatENSt7__cxx1112basic_stringIcSt11char_traitsIcESaIcEEEbSt8functionIFvfEE+0xed>
    2b9c:	48 8b 7c 24 40       	mov    0x40(%rsp),%rdi
    2ba1:	48 89 c3             	mov    %rax,%rbx
    2ba4:	48 8d 44 24 50       	lea    0x50(%rsp),%rax
    2ba9:	48 39 c7             	cmp    %rax,%rdi
    2bac:	74 0e                	je     2bbc <_ZN10arg_parser10parseFloatENSt7__cxx1112basic_stringIcSt11char_traitsIcESaIcEEEbSt8functionIFvfEE.cold+0x124>
    2bae:	48 8b 44 24 50       	mov    0x50(%rsp),%rax
    2bb3:	48 8d 70 01          	lea    0x1(%rax),%rsi
    2bb7:	e8 24 f6 ff ff       	call   21e0 <_ZdlPvm@plt>
    2bbc:	48 8b 7c 24 20       	mov    0x20(%rsp),%rdi
    2bc1:	4c 39 f7             	cmp    %r14,%rdi
    2bc4:	75 24                	jne    2bea <_ZN10arg_parser10parseFloatENSt7__cxx1112basic_stringIcSt11char_traitsIcESaIcEEEbSt8functionIFvfEE.cold+0x152>
    2bc6:	48 89 ef             	mov    %rbp,%rdi
    2bc9:	e8 b2 f5 ff ff       	call   2180 <__cxa_free_exception@plt>
    2bce:	e8 dd f7 ff ff       	call   23b0 <__cxa_end_catch@plt>
    2bd3:	48 89 df             	mov    %rbx,%rdi
    2bd6:	e8 25 f8 ff ff       	call   2400 <_Unwind_Resume@plt>
    2bdb:	48 89 c3             	mov    %rax,%rbx
    2bde:	eb dc                	jmp    2bbc <_ZN10arg_parser10parseFloatENSt7__cxx1112basic_stringIcSt11char_traitsIcESaIcEEEbSt8functionIFvfEE.cold+0x124>
    2be0:	48 89 c3             	mov    %rax,%rbx
    2be3:	eb e1                	jmp    2bc6 <_ZN10arg_parser10parseFloatENSt7__cxx1112basic_stringIcSt11char_traitsIcESaIcEEEbSt8functionIFvfEE.cold+0x12e>
    2be5:	48 89 c3             	mov    %rax,%rbx
    2be8:	eb e4                	jmp    2bce <_ZN10arg_parser10parseFloatENSt7__cxx1112basic_stringIcSt11char_traitsIcESaIcEEEbSt8functionIFvfEE.cold+0x136>
    2bea:	48 8b 44 24 30       	mov    0x30(%rsp),%rax
    2bef:	48 8d 70 01          	lea    0x1(%rax),%rsi
    2bf3:	e8 e8 f5 ff ff       	call   21e0 <_ZdlPvm@plt>
    2bf8:	eb cc                	jmp    2bc6 <_ZN10arg_parser10parseFloatENSt7__cxx1112basic_stringIcSt11char_traitsIcESaIcEEEbSt8functionIFvfEE.cold+0x12e>

0000000000002bfa <_ZN10arg_parser8parseIntENSt7__cxx1112basic_stringIcSt11char_traitsIcESaIcEEEbSt8functionIFviEE.cold>:
    2bfa:	83 3b 00             	cmpl   $0x0,(%rbx)
    2bfd:	0f 84 e1 00 00 00    	je     2ce4 <_ZN10arg_parser8parseIntENSt7__cxx1112basic_stringIcSt11char_traitsIcESaIcEEEbSt8functionIFviEE.cold+0xea>
    2c03:	48 89 c3             	mov    %rax,%rbx
    2c06:	48 8b 7c 24 40       	mov    0x40(%rsp),%rdi
    2c0b:	48 8d 44 24 50       	lea    0x50(%rsp),%rax
    2c10:	48 39 c7             	cmp    %rax,%rdi
    2c13:	74 0e                	je     2c23 <_ZN10arg_parser8parseIntENSt7__cxx1112basic_stringIcSt11char_traitsIcESaIcEEEbSt8functionIFviEE.cold+0x29>
    2c15:	48 8b 44 24 50       	mov    0x50(%rsp),%rax
    2c1a:	48 8d 70 01          	lea    0x1(%rax),%rsi
    2c1e:	e8 bd f5 ff ff       	call   21e0 <_ZdlPvm@plt>
    2c23:	48 8b 7c 24 20       	mov    0x20(%rsp),%rdi
    2c28:	4c 39 f7             	cmp    %r14,%rdi
    2c2b:	74 0e                	je     2c3b <_ZN10arg_parser8parseIntENSt7__cxx1112basic_stringIcSt11char_traitsIcESaIcEEEbSt8functionIFviEE.cold+0x41>
    2c2d:	48 8b 44 24 30       	mov    0x30(%rsp),%rax
    2c32:	48 8d 70 01          	lea    0x1(%rax),%rsi
    2c36:	e8 a5 f5 ff ff       	call   21e0 <_ZdlPvm@plt>
    2c3b:	48 89 df             	mov    %rbx,%rdi
    2c3e:	48 83 ed 01          	sub    $0x1,%rbp
    2c42:	0f 85 a7 00 00 00    	jne    2cef <_ZN10arg_parser8parseIntENSt7__cxx1112basic_stringIcSt11char_traitsIcESaIcEEEbSt8functionIFviEE.cold+0xf5>
    2c48:	e8 53 f4 ff ff       	call   20a0 <__cxa_begin_catch@plt>
    2c4d:	80 7c 24 0c 00       	cmpb   $0x0,0xc(%rsp)
    2c52:	0f 84 9c 00 00 00    	je     2cf4 <_ZN10arg_parser8parseIntENSt7__cxx1112basic_stringIcSt11char_traitsIcESaIcEEEbSt8functionIFviEE.cold+0xfa>
    2c58:	bf 10 00 00 00       	mov    $0x10,%edi
    2c5d:	e8 6e f4 ff ff       	call   20d0 <__cxa_allocate_exception@plt>
    2c62:	4c 89 e2             	mov    %r12,%rdx
    2c65:	48 8d 35 f3 b3 02 00 	lea    0x2b3f3(%rip),%rsi        # 2e05f <_IO_stdin_used+0x5f>
    2c6c:	4c 89 ef             	mov    %r13,%rdi
    2c6f:	48 89 c5             	mov    %rax,%rbp
    2c72:	e8 89 1f 00 00       	call   4c00 <_ZStplIcSt11char_traitsIcESaIcEENSt7__cxx1112basic_stringIT_T0_T1_EEPKS5_RKS8_>
    2c77:	4c 8d 64 24 40       	lea    0x40(%rsp),%r12
    2c7c:	48 8d 15 f1 b3 02 00 	lea    0x2b3f1(%rip),%rdx        # 2e074 <_IO_stdin_used+0x74>
    2c83:	4c 89 ee             	mov    %r13,%rsi
    2c86:	4c 89 e7             	mov    %r12,%rdi
    2c89:	e8 52 1e 00 00       	call   4ae0 <_ZStplIcSt11char_traitsIcESaIcEENSt7__cxx1112basic_stringIT_T0_T1_EEOS8_PKS5_>
    2c8e:	4c 89 e6             	mov    %r12,%rsi
    2c91:	48 89 ef             	mov    %rbp,%rdi
    2c94:	e8 57 f7 ff ff       	call   23f0 <_ZNSt16invalid_argumentC1ERKNSt7__cxx1112basic_stringIcSt11char_traitsIcESaIcEEE@plt>
    2c99:	48 8b 7c 24 40       	mov    0x40(%rsp),%rdi
    2c9e:	48 8d 44 24 50       	lea    0x50(%rsp),%rax
    2ca3:	48 39 c7             	cmp    %rax,%rdi
    2ca6:	74 0e                	je     2cb6 <_ZN10arg_parser8parseIntENSt7__cxx1112basic_stringIcSt11char_traitsIcESaIcEEEbSt8functionIFviEE.cold+0xbc>
    2ca8:	48 8b 44 24 50       	mov    0x50(%rsp),%rax
    2cad:	48 8d 70 01          	lea    0x1(%rax),%rsi
    2cb1:	e8 2a f5 ff ff       	call   21e0 <_ZdlPvm@plt>
    2cb6:	48 8b 7c 24 20       	mov    0x20(%rsp),%rdi
    2cbb:	4c 39 f7             	cmp    %r14,%rdi
    2cbe:	74 0e                	je     2cce <_ZN10arg_parser8parseIntENSt7__cxx1112basic_stringIcSt11char_traitsIcESaIcEEEbSt8functionIFviEE.cold+0xd4>
    2cc0:	48 8b 44 24 30       	mov    0x30(%rsp),%rax
    2cc5:	48 8d 70 01          	lea    0x1(%rax),%rsi
    2cc9:	e8 12 f5 ff ff       	call   21e0 <_ZdlPvm@plt>
    2cce:	48 8b 15 fb 22 03 00 	mov    0x322fb(%rip),%rdx        # 34fd0 <_ZNSt16invalid_argumentD1Ev@GLIBCXX_3.4>
    2cd5:	48 8d 35 44 20 03 00 	lea    0x32044(%rip),%rsi        # 34d20 <_ZTISt16invalid_argument@GLIBCXX_3.4>
    2cdc:	48 89 ef             	mov    %rbp,%rdi
    2cdf:	e8 ec f6 ff ff       	call   23d0 <__cxa_throw@plt>
    2ce4:	8b 4c 24 08          	mov    0x8(%rsp),%ecx
    2ce8:	89 0b                	mov    %ecx,(%rbx)
    2cea:	e9 14 ff ff ff       	jmp    2c03 <_ZN10arg_parser8parseIntENSt7__cxx1112basic_stringIcSt11char_traitsIcESaIcEEEbSt8functionIFviEE.cold+0x9>
    2cef:	e8 0c f7 ff ff       	call   2400 <_Unwind_Resume@plt>
    2cf4:	e8 b7 f6 ff ff       	call   23b0 <__cxa_end_catch@plt>
    2cf9:	e9 e4 17 00 00       	jmp    44e2 <_ZN10arg_parser8parseIntENSt7__cxx1112basic_stringIcSt11char_traitsIcESaIcEEEbSt8functionIFviEE+0x102>
    2cfe:	48 8b 7c 24 40       	mov    0x40(%rsp),%rdi
    2d03:	48 89 c3             	mov    %rax,%rbx
    2d06:	48 8d 44 24 50       	lea    0x50(%rsp),%rax
    2d0b:	48 39 c7             	cmp    %rax,%rdi
    2d0e:	74 0e                	je     2d1e <_ZN10arg_parser8parseIntENSt7__cxx1112basic_stringIcSt11char_traitsIcESaIcEEEbSt8functionIFviEE.cold+0x124>
    2d10:	48 8b 44 24 50       	mov    0x50(%rsp),%rax
    2d15:	48 8d 70 01          	lea    0x1(%rax),%rsi
    2d19:	e8 c2 f4 ff ff       	call   21e0 <_ZdlPvm@plt>
    2d1e:	48 8b 7c 24 20       	mov    0x20(%rsp),%rdi
    2d23:	4c 39 f7             	cmp    %r14,%rdi
    2d26:	75 24                	jne    2d4c <_ZN10arg_parser8parseIntENSt7__cxx1112basic_stringIcSt11char_traitsIcESaIcEEEbSt8functionIFviEE.cold+0x152>
    2d28:	48 89 ef             	mov    %rbp,%rdi
    2d2b:	e8 50 f4 ff ff       	call   2180 <__cxa_free_exception@plt>
    2d30:	e8 7b f6 ff ff       	call   23b0 <__cxa_end_catch@plt>
    2d35:	48 89 df             	mov    %rbx,%rdi
    2d38:	e8 c3 f6 ff ff       	call   2400 <_Unwind_Resume@plt>
    2d3d:	48 89 c3             	mov    %rax,%rbx
    2d40:	eb dc                	jmp    2d1e <_ZN10arg_parser8parseIntENSt7__cxx1112basic_stringIcSt11char_traitsIcESaIcEEEbSt8functionIFviEE.cold+0x124>
    2d42:	48 89 c3             	mov    %rax,%rbx
    2d45:	eb e1                	jmp    2d28 <_ZN10arg_parser8parseIntENSt7__cxx1112basic_stringIcSt11char_traitsIcESaIcEEEbSt8functionIFviEE.cold+0x12e>
    2d47:	48 89 c3             	mov    %rax,%rbx
    2d4a:	eb e4                	jmp    2d30 <_ZN10arg_parser8parseIntENSt7__cxx1112basic_stringIcSt11char_traitsIcESaIcEEEbSt8functionIFviEE.cold+0x136>
    2d4c:	48 8b 44 24 30       	mov    0x30(%rsp),%rax
    2d51:	48 8d 70 01          	lea    0x1(%rax),%rsi
    2d55:	e8 86 f4 ff ff       	call   21e0 <_ZdlPvm@plt>
    2d5a:	eb cc                	jmp    2d28 <_ZN10arg_parser8parseIntENSt7__cxx1112basic_stringIcSt11char_traitsIcESaIcEEEbSt8functionIFviEE.cold+0x12e>

0000000000002d5c <_ZN10arg_parser9parseBoolENSt7__cxx1112basic_stringIcSt11char_traitsIcESaIcEEEbSt8functionIFvvEE.cold>:
    2d5c:	bf 10 00 00 00       	mov    $0x10,%edi
    2d61:	48 8d 6c 24 30       	lea    0x30(%rsp),%rbp
    2d66:	e8 65 f3 ff ff       	call   20d0 <__cxa_allocate_exception@plt>
    2d6b:	4c 89 e2             	mov    %r12,%rdx
    2d6e:	48 8d 35 ea b2 02 00 	lea    0x2b2ea(%rip),%rsi        # 2e05f <_IO_stdin_used+0x5f>
    2d75:	48 89 ef             	mov    %rbp,%rdi
    2d78:	49 89 c5             	mov    %rax,%r13
    2d7b:	e8 80 1e 00 00       	call   4c00 <_ZStplIcSt11char_traitsIcESaIcEENSt7__cxx1112basic_stringIT_T0_T1_EEPKS5_RKS8_>
    2d80:	48 8d 15 ed b2 02 00 	lea    0x2b2ed(%rip),%rdx        # 2e074 <_IO_stdin_used+0x74>
    2d87:	48 89 ee             	mov    %rbp,%rsi
    2d8a:	4c 89 ff             	mov    %r15,%rdi
    2d8d:	e8 4e 1d 00 00       	call   4ae0 <_ZStplIcSt11char_traitsIcESaIcEENSt7__cxx1112basic_stringIT_T0_T1_EEOS8_PKS5_>
    2d92:	4c 89 fe             	mov    %r15,%rsi
    2d95:	4c 89 ef             	mov    %r13,%rdi
    2d98:	e8 53 f6 ff ff       	call   23f0 <_ZNSt16invalid_argumentC1ERKNSt7__cxx1112basic_stringIcSt11char_traitsIcESaIcEEE@plt>
    2d9d:	48 8b 7c 24 50       	mov    0x50(%rsp),%rdi
    2da2:	4c 39 f7             	cmp    %r14,%rdi
    2da5:	74 0e                	je     2db5 <_ZN10arg_parser9parseBoolENSt7__cxx1112basic_stringIcSt11char_traitsIcESaIcEEEbSt8functionIFvvEE.cold+0x59>
    2da7:	48 8b 44 24 60       	mov    0x60(%rsp),%rax
    2dac:	48 8d 70 01          	lea    0x1(%rax),%rsi
    2db0:	e8 2b f4 ff ff       	call   21e0 <_ZdlPvm@plt>
    2db5:	48 8b 7c 24 30       	mov    0x30(%rsp),%rdi
    2dba:	48 8d 44 24 40       	lea    0x40(%rsp),%rax
    2dbf:	48 39 c7             	cmp    %rax,%rdi
    2dc2:	74 0e                	je     2dd2 <_ZN10arg_parser9parseBoolENSt7__cxx1112basic_stringIcSt11char_traitsIcESaIcEEEbSt8functionIFvvEE.cold+0x76>
    2dc4:	48 8b 44 24 40       	mov    0x40(%rsp),%rax
    2dc9:	48 8d 70 01          	lea    0x1(%rax),%rsi
    2dcd:	e8 0e f4 ff ff       	call   21e0 <_ZdlPvm@plt>
    2dd2:	48 8b 15 f7 21 03 00 	mov    0x321f7(%rip),%rdx        # 34fd0 <_ZNSt16invalid_argumentD1Ev@GLIBCXX_3.4>
    2dd9:	48 8d 35 40 1f 03 00 	lea    0x31f40(%rip),%rsi        # 34d20 <_ZTISt16invalid_argument@GLIBCXX_3.4>
    2de0:	4c 89 ef             	mov    %r13,%rdi
    2de3:	e8 e8 f5 ff ff       	call   23d0 <__cxa_throw@plt>
    2de8:	48 8b 7c 24 50       	mov    0x50(%rsp),%rdi
    2ded:	4c 39 f7             	cmp    %r14,%rdi
    2df0:	74 0e                	je     2e00 <_ZN10arg_parser9parseBoolENSt7__cxx1112basic_stringIcSt11char_traitsIcESaIcEEEbSt8functionIFvvEE.cold+0xa4>
    2df2:	48 8b 44 24 60       	mov    0x60(%rsp),%rax
    2df7:	48 8d 70 01          	lea    0x1(%rax),%rsi
    2dfb:	e8 e0 f3 ff ff       	call   21e0 <_ZdlPvm@plt>
    2e00:	48 89 ef             	mov    %rbp,%rdi
    2e03:	e8 f8 f5 ff ff       	call   2400 <_Unwind_Resume@plt>
    2e08:	48 89 c5             	mov    %rax,%rbp
    2e0b:	48 8b 7c 24 10       	mov    0x10(%rsp),%rdi
    2e10:	48 8d 44 24 20       	lea    0x20(%rsp),%rax
    2e15:	48 39 c7             	cmp    %rax,%rdi
    2e18:	74 0e                	je     2e28 <_ZN10arg_parser9parseBoolENSt7__cxx1112basic_stringIcSt11char_traitsIcESaIcEEEbSt8functionIFvvEE.cold+0xcc>
    2e1a:	48 8b 44 24 20       	mov    0x20(%rsp),%rax
    2e1f:	48 8d 70 01          	lea    0x1(%rax),%rsi
    2e23:	e8 b8 f3 ff ff       	call   21e0 <_ZdlPvm@plt>
    2e28:	48 89 ef             	mov    %rbp,%rdi
    2e2b:	e8 d0 f5 ff ff       	call   2400 <_Unwind_Resume@plt>
    2e30:	48 8b 7c 24 50       	mov    0x50(%rsp),%rdi
    2e35:	48 89 c3             	mov    %rax,%rbx
    2e38:	4c 39 f7             	cmp    %r14,%rdi
    2e3b:	74 0e                	je     2e4b <_ZN10arg_parser9parseBoolENSt7__cxx1112basic_stringIcSt11char_traitsIcESaIcEEEbSt8functionIFvvEE.cold+0xef>
    2e3d:	48 8b 44 24 60       	mov    0x60(%rsp),%rax
    2e42:	48 8d 70 01          	lea    0x1(%rax),%rsi
    2e46:	e8 95 f3 ff ff       	call   21e0 <_ZdlPvm@plt>
    2e4b:	48 8b 7c 24 30       	mov    0x30(%rsp),%rdi
    2e50:	48 8d 44 24 40       	lea    0x40(%rsp),%rax
    2e55:	48 39 c7             	cmp    %rax,%rdi
    2e58:	74 0e                	je     2e68 <_ZN10arg_parser9parseBoolENSt7__cxx1112basic_stringIcSt11char_traitsIcESaIcEEEbSt8functionIFvvEE.cold+0x10c>
    2e5a:	48 8b 44 24 40       	mov    0x40(%rsp),%rax
    2e5f:	48 8d 70 01          	lea    0x1(%rax),%rsi
    2e63:	e8 78 f3 ff ff       	call   21e0 <_ZdlPvm@plt>
    2e68:	4c 89 ef             	mov    %r13,%rdi
    2e6b:	48 89 dd             	mov    %rbx,%rbp
    2e6e:	e8 0d f3 ff ff       	call   2180 <__cxa_free_exception@plt>
    2e73:	eb 96                	jmp    2e0b <_ZN10arg_parser9parseBoolENSt7__cxx1112basic_stringIcSt11char_traitsIcESaIcEEEbSt8functionIFvvEE.cold+0xaf>
    2e75:	48 89 c3             	mov    %rax,%rbx
    2e78:	eb d1                	jmp    2e4b <_ZN10arg_parser9parseBoolENSt7__cxx1112basic_stringIcSt11char_traitsIcESaIcEEEbSt8functionIFvvEE.cold+0xef>
    2e7a:	48 89 c3             	mov    %rax,%rbx
    2e7d:	eb e9                	jmp    2e68 <_ZN10arg_parser9parseBoolENSt7__cxx1112basic_stringIcSt11char_traitsIcESaIcEEEbSt8functionIFvvEE.cold+0x10c>
    2e7f:	90                   	nop

0000000000002e80 <_ZL18stbi__hdr_gettokenP13stbi__contextPc.cold>:
    2e80:	48 8b 93 c8 00 00 00 	mov    0xc8(%rbx),%rdx
    2e87:	48 8b 83 c0 00 00 00 	mov    0xc0(%rbx),%rax
    2e8e:	48 39 c2             	cmp    %rax,%rdx
    2e91:	0f 86 4c 02 01 00    	jbe    130e3 <_ZL18stbi__hdr_gettokenP13stbi__contextPc+0x2d3>
    2e97:	48 8d 48 01          	lea    0x1(%rax),%rcx
    2e9b:	48 89 8b c0 00 00 00 	mov    %rcx,0xc0(%rbx)
    2ea2:	80 38 0a             	cmpb   $0xa,(%rax)
    2ea5:	75 e0                	jne    2e87 <_ZL18stbi__hdr_gettokenP13stbi__contextPc.cold+0x7>
    2ea7:	e9 37 02 01 00       	jmp    130e3 <_ZL18stbi__hdr_gettokenP13stbi__contextPc+0x2d3>

0000000000002eac <_ZL20stbi__parse_png_fileP9stbi__pngii.constprop.0.cold>:
    2eac:	ba 03 00 00 00       	mov    $0x3,%edx
    2eb1:	31 f6                	xor    %esi,%esi
    2eb3:	29 c2                	sub    %eax,%edx
    2eb5:	48 98                	cltq   
    2eb7:	48 83 c2 01          	add    $0x1,%rdx
    2ebb:	48 8d bc 04 60 1a 00 	lea    0x1a60(%rsp,%rax,1),%rdi
    2ec2:	00 
    2ec3:	e8 38 f2 ff ff       	call   2100 <memset@plt>
    2ec8:	e9 c3 5b 01 00       	jmp    18a90 <_ZL20stbi__parse_png_fileP9stbi__pngii.constprop.0+0x1830>
    2ecd:	90                   	nop

0000000000002ece <_ZN7texture11createAtlasEPS_mPP8Position.cold>:
    2ece:	bf 10 00 00 00       	mov    $0x10,%edi
    2ed3:	e8 f8 f1 ff ff       	call   20d0 <__cxa_allocate_exception@plt>
    2ed8:	48 8d 35 71 d8 02 00 	lea    0x2d871(%rip),%rsi        # 30750 <_ZL11stbi__bmask+0x650>
    2edf:	48 89 c7             	mov    %rax,%rdi
    2ee2:	49 89 c4             	mov    %rax,%r12
    2ee5:	e8 46 f5 ff ff       	call   2430 <_ZNSt16invalid_argumentC1EPKc@plt>
    2eea:	48 8b 15 df 20 03 00 	mov    0x320df(%rip),%rdx        # 34fd0 <_ZNSt16invalid_argumentD1Ev@GLIBCXX_3.4>
    2ef1:	48 8d 35 28 1e 03 00 	lea    0x31e28(%rip),%rsi        # 34d20 <_ZTISt16invalid_argument@GLIBCXX_3.4>
    2ef8:	4c 89 e7             	mov    %r12,%rdi
    2efb:	e8 d0 f4 ff ff       	call   23d0 <__cxa_throw@plt>
    2f00:	e8 eb f3 ff ff       	call   22f0 <__cxa_throw_bad_array_new_length@plt>
    2f05:	48 89 c5             	mov    %rax,%rbp
    2f08:	eb 0b                	jmp    2f15 <_ZN7texture11createAtlasEPS_mPP8Position.cold+0x47>
    2f0a:	4c 89 e7             	mov    %r12,%rdi
    2f0d:	48 89 c5             	mov    %rax,%rbp
    2f10:	e8 6b f2 ff ff       	call   2180 <__cxa_free_exception@plt>
    2f15:	48 8b 7c 24 18       	mov    0x18(%rsp),%rdi
    2f1a:	e8 61 f3 ff ff       	call   2280 <_ZdaPv@plt>
    2f1f:	48 89 ef             	mov    %rbp,%rdi
    2f22:	e8 d9 f4 ff ff       	call   2400 <_Unwind_Resume@plt>
    2f27:	48 89 ef             	mov    %rbp,%rdi
    2f2a:	e8 51 f2 ff ff       	call   2180 <__cxa_free_exception@plt>
    2f2f:	4c 89 e7             	mov    %r12,%rdi
    2f32:	e8 c9 f4 ff ff       	call   2400 <_Unwind_Resume@plt>
    2f37:	90                   	nop

0000000000002f38 <_ZN7texture3setEjjhRKS_.cold>:
    2f38:	bf 10 00 00 00       	mov    $0x10,%edi
    2f3d:	e8 8e f1 ff ff       	call   20d0 <__cxa_allocate_exception@plt>
    2f42:	48 8d 35 07 d8 02 00 	lea    0x2d807(%rip),%rsi        # 30750 <_ZL11stbi__bmask+0x650>
    2f49:	48 89 c7             	mov    %rax,%rdi
    2f4c:	48 89 c5             	mov    %rax,%rbp
    2f4f:	e8 dc f4 ff ff       	call   2430 <_ZNSt16invalid_argumentC1EPKc@plt>
    2f54:	48 8b 15 75 20 03 00 	mov    0x32075(%rip),%rdx        # 34fd0 <_ZNSt16invalid_argumentD1Ev@GLIBCXX_3.4>
    2f5b:	48 8d 35 be 1d 03 00 	lea    0x31dbe(%rip),%rsi        # 34d20 <_ZTISt16invalid_argument@GLIBCXX_3.4>
    2f62:	48 89 ef             	mov    %rbp,%rdi
    2f65:	e8 66 f4 ff ff       	call   23d0 <__cxa_throw@plt>
    2f6a:	49 89 c4             	mov    %rax,%r12
    2f6d:	48 89 ef             	mov    %rbp,%rdi
    2f70:	e8 0b f2 ff ff       	call   2180 <__cxa_free_exception@plt>
    2f75:	4c 89 e7             	mov    %r12,%rdi
    2f78:	e8 83 f4 ff ff       	call   2400 <_Unwind_Resume@plt>
    2f7d:	90                   	nop

0000000000002f7e <_ZN7texture4loadERKNSt7__cxx1112basic_stringIcSt11char_traitsIcESaIcEEEh.cold>:
    2f7e:	bf 10 00 00 00       	mov    $0x10,%edi
    2f83:	4c 8d ac 24 f0 00 00 	lea    0xf0(%rsp),%r13
    2f8a:	00 
    2f8b:	e8 40 f1 ff ff       	call   20d0 <__cxa_allocate_exception@plt>
    2f90:	48 8b 54 24 28       	mov    0x28(%rsp),%rdx
    2f95:	48 8d 35 bc d8 02 00 	lea    0x2d8bc(%rip),%rsi        # 30858 <_ZL11stbi__bmask+0x758>
    2f9c:	4c 89 ef             	mov    %r13,%rdi
    2f9f:	48 89 c5             	mov    %rax,%rbp
    2fa2:	e8 59 1c 00 00       	call   4c00 <_ZStplIcSt11char_traitsIcESaIcEENSt7__cxx1112basic_stringIT_T0_T1_EEPKS5_RKS8_>
    2fa7:	4c 8d a4 24 10 01 00 	lea    0x110(%rsp),%r12
    2fae:	00 
    2faf:	48 8d 15 19 db 02 00 	lea    0x2db19(%rip),%rdx        # 30acf <_ZL11stbi__bmask+0x9cf>
    2fb6:	4c 89 ee             	mov    %r13,%rsi
    2fb9:	4c 89 e7             	mov    %r12,%rdi
    2fbc:	e8 1f 1b 00 00       	call   4ae0 <_ZStplIcSt11char_traitsIcESaIcEENSt7__cxx1112basic_stringIT_T0_T1_EEOS8_PKS5_>
    2fc1:	4c 89 e6             	mov    %r12,%rsi
    2fc4:	48 89 ef             	mov    %rbp,%rdi
    2fc7:	e8 c4 f3 ff ff       	call   2390 <_ZNSt13runtime_errorC1ERKNSt7__cxx1112basic_stringIcSt11char_traitsIcESaIcEEE@plt>
    2fcc:	48 8b bc 24 10 01 00 	mov    0x110(%rsp),%rdi
    2fd3:	00 
    2fd4:	48 8d 84 24 20 01 00 	lea    0x120(%rsp),%rax
    2fdb:	00 
    2fdc:	48 39 c7             	cmp    %rax,%rdi
    2fdf:	74 11                	je     2ff2 <_ZN7texture4loadERKNSt7__cxx1112basic_stringIcSt11char_traitsIcESaIcEEEh.cold+0x74>
    2fe1:	48 8b 84 24 20 01 00 	mov    0x120(%rsp),%rax
    2fe8:	00 
    2fe9:	48 8d 70 01          	lea    0x1(%rax),%rsi
    2fed:	e8 ee f1 ff ff       	call   21e0 <_ZdlPvm@plt>
    2ff2:	48 8b bc 24 f0 00 00 	mov    0xf0(%rsp),%rdi
    2ff9:	00 
    2ffa:	48 8d 84 24 00 01 00 	lea    0x100(%rsp),%rax
    3001:	00 
    3002:	48 39 c7             	cmp    %rax,%rdi
    3005:	74 11                	je     3018 <_ZN7texture4loadERKNSt7__cxx1112basic_stringIcSt11char_traitsIcESaIcEEEh.cold+0x9a>
    3007:	48 8b 84 24 00 01 00 	mov    0x100(%rsp),%rax
    300e:	00 
    300f:	48 8d 70 01          	lea    0x1(%rax),%rsi
    3013:	e8 c8 f1 ff ff       	call   21e0 <_ZdlPvm@plt>
    3018:	48 8b 15 a9 1f 03 00 	mov    0x31fa9(%rip),%rdx        # 34fc8 <_ZNSt13runtime_errorD1Ev@GLIBCXX_3.4>
    301f:	48 8d 35 1a 1d 03 00 	lea    0x31d1a(%rip),%rsi        # 34d40 <_ZTISt13runtime_error@GLIBCXX_3.4>
    3026:	48 89 ef             	mov    %rbp,%rdi
    3029:	e8 a2 f3 ff ff       	call   23d0 <__cxa_throw@plt>
    302e:	48 89 c3             	mov    %rax,%rbx
    3031:	eb 4f                	jmp    3082 <_ZN7texture4loadERKNSt7__cxx1112basic_stringIcSt11char_traitsIcESaIcEEEh.cold+0x104>
    3033:	48 8b bc 24 10 01 00 	mov    0x110(%rsp),%rdi
    303a:	00 
    303b:	48 89 c3             	mov    %rax,%rbx
    303e:	48 8d 84 24 20 01 00 	lea    0x120(%rsp),%rax
    3045:	00 
    3046:	48 39 c7             	cmp    %rax,%rdi
    3049:	74 11                	je     305c <_ZN7texture4loadERKNSt7__cxx1112basic_stringIcSt11char_traitsIcESaIcEEEh.cold+0xde>
    304b:	48 8b 84 24 20 01 00 	mov    0x120(%rsp),%rax
    3052:	00 
    3053:	48 8d 70 01          	lea    0x1(%rax),%rsi
    3057:	e8 84 f1 ff ff       	call   21e0 <_ZdlPvm@plt>
    305c:	48 8b bc 24 f0 00 00 	mov    0xf0(%rsp),%rdi
    3063:	00 
    3064:	48 8d 84 24 00 01 00 	lea    0x100(%rsp),%rax
    306b:	00 
    306c:	48 39 c7             	cmp    %rax,%rdi
    306f:	74 11                	je     3082 <_ZN7texture4loadERKNSt7__cxx1112basic_stringIcSt11char_traitsIcESaIcEEEh.cold+0x104>
    3071:	48 8b 84 24 00 01 00 	mov    0x100(%rsp),%rax
    3078:	00 
    3079:	48 8d 70 01          	lea    0x1(%rax),%rsi
    307d:	e8 5e f1 ff ff       	call   21e0 <_ZdlPvm@plt>
    3082:	48 89 ef             	mov    %rbp,%rdi
    3085:	e8 f6 f0 ff ff       	call   2180 <__cxa_free_exception@plt>
    308a:	48 89 df             	mov    %rbx,%rdi
    308d:	e8 6e f3 ff ff       	call   2400 <_Unwind_Resume@plt>
    3092:	48 89 c3             	mov    %rax,%rbx
    3095:	eb c5                	jmp    305c <_ZN7texture4loadERKNSt7__cxx1112basic_stringIcSt11char_traitsIcESaIcEEEh.cold+0xde>
    3097:	90                   	nop

0000000000003098 <_ZNK7texture4saveERKNSt7__cxx1112basic_stringIcSt11char_traitsIcESaIcEEE.cold>:
    3098:	bf 10 00 00 00       	mov    $0x10,%edi
    309d:	4c 8d ad 50 ff ff ff 	lea    -0xb0(%rbp),%r13
    30a4:	e8 27 f0 ff ff       	call   20d0 <__cxa_allocate_exception@plt>
    30a9:	48 8d 95 30 ff ff ff 	lea    -0xd0(%rbp),%rdx
    30b0:	48 8d 35 0d da 02 00 	lea    0x2da0d(%rip),%rsi        # 30ac4 <_ZL11stbi__bmask+0x9c4>
    30b7:	4c 89 ef             	mov    %r13,%rdi
    30ba:	49 89 c4             	mov    %rax,%r12
    30bd:	e8 3e 1b 00 00       	call   4c00 <_ZStplIcSt11char_traitsIcESaIcEENSt7__cxx1112basic_stringIT_T0_T1_EEPKS5_RKS8_>
    30c2:	48 8d 85 70 ff ff ff 	lea    -0x90(%rbp),%rax
    30c9:	48 8d 15 01 da 02 00 	lea    0x2da01(%rip),%rdx        # 30ad1 <_ZL11stbi__bmask+0x9d1>
    30d0:	4c 89 ee             	mov    %r13,%rsi
    30d3:	48 89 c7             	mov    %rax,%rdi
    30d6:	48 89 85 10 ff ff ff 	mov    %rax,-0xf0(%rbp)
    30dd:	e8 fe 19 00 00       	call   4ae0 <_ZStplIcSt11char_traitsIcESaIcEENSt7__cxx1112basic_stringIT_T0_T1_EEOS8_PKS5_>
    30e2:	48 8b b5 10 ff ff ff 	mov    -0xf0(%rbp),%rsi
    30e9:	4c 89 e7             	mov    %r12,%rdi
    30ec:	e8 ff f2 ff ff       	call   23f0 <_ZNSt16invalid_argumentC1ERKNSt7__cxx1112basic_stringIcSt11char_traitsIcESaIcEEE@plt>
    30f1:	48 8b bd 70 ff ff ff 	mov    -0x90(%rbp),%rdi
    30f8:	48 8d 45 80          	lea    -0x80(%rbp),%rax
    30fc:	48 39 c7             	cmp    %rax,%rdi
    30ff:	74 0d                	je     310e <_ZNK7texture4saveERKNSt7__cxx1112basic_stringIcSt11char_traitsIcESaIcEEE.cold+0x76>
    3101:	48 8b 45 80          	mov    -0x80(%rbp),%rax
    3105:	48 8d 70 01          	lea    0x1(%rax),%rsi
    3109:	e8 d2 f0 ff ff       	call   21e0 <_ZdlPvm@plt>
    310e:	48 8b bd 50 ff ff ff 	mov    -0xb0(%rbp),%rdi
    3115:	48 8d 85 60 ff ff ff 	lea    -0xa0(%rbp),%rax
    311c:	48 39 c7             	cmp    %rax,%rdi
    311f:	74 10                	je     3131 <_ZNK7texture4saveERKNSt7__cxx1112basic_stringIcSt11char_traitsIcESaIcEEE.cold+0x99>
    3121:	48 8b 85 60 ff ff ff 	mov    -0xa0(%rbp),%rax
    3128:	48 8d 70 01          	lea    0x1(%rax),%rsi
    312c:	e8 af f0 ff ff       	call   21e0 <_ZdlPvm@plt>
    3131:	48 8b 15 98 1e 03 00 	mov    0x31e98(%rip),%rdx        # 34fd0 <_ZNSt16invalid_argumentD1Ev@GLIBCXX_3.4>
    3138:	48 8d 35 e1 1b 03 00 	lea    0x31be1(%rip),%rsi        # 34d20 <_ZTISt16invalid_argument@GLIBCXX_3.4>
    313f:	4c 89 e7             	mov    %r12,%rdi
    3142:	e8 89 f2 ff ff       	call   23d0 <__cxa_throw@plt>
    3147:	48 89 c3             	mov    %rax,%rbx
    314a:	48 8b bd 30 ff ff ff 	mov    -0xd0(%rbp),%rdi
    3151:	48 3b bd b0 fe ff ff 	cmp    -0x150(%rbp),%rdi
    3158:	74 10                	je     316a <_ZNK7texture4saveERKNSt7__cxx1112basic_stringIcSt11char_traitsIcESaIcEEE.cold+0xd2>
    315a:	48 8b 85 40 ff ff ff 	mov    -0xc0(%rbp),%rax
    3161:	48 8d 70 01          	lea    0x1(%rax),%rsi
    3165:	e8 76 f0 ff ff       	call   21e0 <_ZdlPvm@plt>
    316a:	48 89 df             	mov    %rbx,%rdi
    316d:	e8 8e f2 ff ff       	call   2400 <_Unwind_Resume@plt>
    3172:	48 8b bd 70 ff ff ff 	mov    -0x90(%rbp),%rdi
    3179:	48 89 c3             	mov    %rax,%rbx
    317c:	48 8d 45 80          	lea    -0x80(%rbp),%rax
    3180:	48 39 c7             	cmp    %rax,%rdi
    3183:	74 0d                	je     3192 <_ZNK7texture4saveERKNSt7__cxx1112basic_stringIcSt11char_traitsIcESaIcEEE.cold+0xfa>
    3185:	48 8b 45 80          	mov    -0x80(%rbp),%rax
    3189:	48 8d 70 01          	lea    0x1(%rax),%rsi
    318d:	e8 4e f0 ff ff       	call   21e0 <_ZdlPvm@plt>
    3192:	48 8b bd 50 ff ff ff 	mov    -0xb0(%rbp),%rdi
    3199:	48 8d 85 60 ff ff ff 	lea    -0xa0(%rbp),%rax
    31a0:	48 39 c7             	cmp    %rax,%rdi
    31a3:	74 10                	je     31b5 <_ZNK7texture4saveERKNSt7__cxx1112basic_stringIcSt11char_traitsIcESaIcEEE.cold+0x11d>
    31a5:	48 8b 85 60 ff ff ff 	mov    -0xa0(%rbp),%rax
    31ac:	48 8d 70 01          	lea    0x1(%rax),%rsi
    31b0:	e8 2b f0 ff ff       	call   21e0 <_ZdlPvm@plt>
    31b5:	4c 89 e7             	mov    %r12,%rdi
    31b8:	e8 c3 ef ff ff       	call   2180 <__cxa_free_exception@plt>
    31bd:	eb 8b                	jmp    314a <_ZNK7texture4saveERKNSt7__cxx1112basic_stringIcSt11char_traitsIcESaIcEEE.cold+0xb2>
    31bf:	48 89 c3             	mov    %rax,%rbx
    31c2:	eb ce                	jmp    3192 <_ZNK7texture4saveERKNSt7__cxx1112basic_stringIcSt11char_traitsIcESaIcEEE.cold+0xfa>
    31c4:	48 89 c3             	mov    %rax,%rbx
    31c7:	eb ec                	jmp    31b5 <_ZNK7texture4saveERKNSt7__cxx1112basic_stringIcSt11char_traitsIcESaIcEEE.cold+0x11d>
    31c9:	0f 1f 80 00 00 00 00 	nopl   0x0(%rax)

00000000000031d0 <main>:
    31d0:	41 54                	push   %r12
    31d2:	be 01 00 00 00       	mov    $0x1,%esi
    31d7:	48 8d 3d 22 24 03 00 	lea    0x32422(%rip),%rdi        # 35600 <_ZSt4cout@GLIBCXX_3.4>
    31de:	55                   	push   %rbp
    31df:	48 83 ec 18          	sub    $0x18,%rsp
    31e3:	64 48 8b 04 25 28 00 	mov    %fs:0x28,%rax
    31ea:	00 00 
    31ec:	48 89 44 24 08       	mov    %rax,0x8(%rsp)
    31f1:	31 c0                	xor    %eax,%eax
    31f3:	48 8d 6c 24 07       	lea    0x7(%rsp),%rbp
    31f8:	e8 e3 f1 ff ff       	call   23e0 <_ZNSolsEi@plt>
    31fd:	48 89 ee             	mov    %rbp,%rsi
    3200:	ba 01 00 00 00       	mov    $0x1,%edx
    3205:	c6 44 24 07 20       	movb   $0x20,0x7(%rsp)
    320a:	48 89 c7             	mov    %rax,%rdi
    320d:	e8 0e f0 ff ff       	call   2220 <_ZSt16__ostream_insertIcSt11char_traitsIcEERSt13basic_ostreamIT_T0_ES6_PKS3_l@plt>
    3212:	f2 0f 10 05 ee ad 02 	movsd  0x2adee(%rip),%xmm0        # 2e008 <_IO_stdin_used+0x8>
    3219:	00 
    321a:	48 89 c7             	mov    %rax,%rdi
    321d:	e8 5e f1 ff ff       	call   2380 <_ZNSo9_M_insertIdEERSoT_@plt>
    3222:	48 89 ee             	mov    %rbp,%rsi
    3225:	ba 01 00 00 00       	mov    $0x1,%edx
    322a:	c6 44 24 07 20       	movb   $0x20,0x7(%rsp)
    322f:	48 89 c7             	mov    %rax,%rdi
    3232:	e8 e9 ef ff ff       	call   2220 <_ZSt16__ostream_insertIcSt11char_traitsIcEERSt13basic_ostreamIT_T0_ES6_PKS3_l@plt>
    3237:	f2 0f 10 05 d1 ad 02 	movsd  0x2add1(%rip),%xmm0        # 2e010 <_IO_stdin_used+0x10>
    323e:	00 
    323f:	48 89 c7             	mov    %rax,%rdi
    3242:	e8 39 f1 ff ff       	call   2380 <_ZNSo9_M_insertIdEERSoT_@plt>
    3247:	48 89 c5             	mov    %rax,%rbp
    324a:	48 8b 00             	mov    (%rax),%rax
    324d:	48 8b 40 e8          	mov    -0x18(%rax),%rax
    3251:	4c 8b a4 05 f0 00 00 	mov    0xf0(%rbp,%rax,1),%r12
    3258:	00 
    3259:	4d 85 e4             	test   %r12,%r12
    325c:	74 54                	je     32b2 <main+0xe2>
    325e:	41 80 7c 24 38 00    	cmpb   $0x0,0x38(%r12)
    3264:	74 30                	je     3296 <main+0xc6>
    3266:	41 0f be 74 24 43    	movsbl 0x43(%r12),%esi
    326c:	48 89 ef             	mov    %rbp,%rdi
    326f:	e8 cc ed ff ff       	call   2040 <_ZNSo3putEc@plt>
    3274:	48 89 c7             	mov    %rax,%rdi
    3277:	e8 e4 ee ff ff       	call   2160 <_ZNSo5flushEv@plt>
    327c:	48 8b 44 24 08       	mov    0x8(%rsp),%rax
    3281:	64 48 2b 04 25 28 00 	sub    %fs:0x28,%rax
    3288:	00 00 
    328a:	75 2b                	jne    32b7 <main+0xe7>
    328c:	48 83 c4 18          	add    $0x18,%rsp
    3290:	31 c0                	xor    %eax,%eax
    3292:	5d                   	pop    %rbp
    3293:	41 5c                	pop    %r12
    3295:	c3                   	ret    
    3296:	4c 89 e7             	mov    %r12,%rdi
    3299:	e8 92 ef ff ff       	call   2230 <_ZNKSt5ctypeIcE13_M_widen_initEv@plt>
    329e:	49 8b 04 24          	mov    (%r12),%rax
    32a2:	be 0a 00 00 00       	mov    $0xa,%esi
    32a7:	4c 89 e7             	mov    %r12,%rdi
    32aa:	ff 50 30             	call   *0x30(%rax)
    32ad:	0f be f0             	movsbl %al,%esi
    32b0:	eb ba                	jmp    326c <main+0x9c>
    32b2:	e8 b9 ef ff ff       	call   2270 <_ZSt16__throw_bad_castv@plt>
    32b7:	e8 54 ef ff ff       	call   2210 <__stack_chk_fail@plt>
    32bc:	0f 1f 40 00          	nopl   0x0(%rax)

00000000000032c0 <_GLOBAL__sub_I_main>:
    32c0:	55                   	push   %rbp
    32c1:	48 8d 2d 49 24 03 00 	lea    0x32449(%rip),%rbp        # 35711 <_ZStL8__ioinit>
    32c8:	48 89 ef             	mov    %rbp,%rdi
    32cb:	e8 70 f0 ff ff       	call   2340 <_ZNSt8ios_base4InitC1Ev@plt>
    32d0:	48 8b 3d 19 1d 03 00 	mov    0x31d19(%rip),%rdi        # 34ff0 <_ZNSt8ios_base4InitD1Ev@GLIBCXX_3.4>
    32d7:	48 89 ee             	mov    %rbp,%rsi
    32da:	5d                   	pop    %rbp
    32db:	48 8d 15 56 1f 03 00 	lea    0x31f56(%rip),%rdx        # 35238 <__dso_handle>
    32e2:	e9 c9 ee ff ff       	jmp    21b0 <__cxa_atexit@plt>
    32e7:	66 0f 1f 84 00 00 00 	nopw   0x0(%rax,%rax,1)
    32ee:	00 00 

00000000000032f0 <_GLOBAL__sub_I__ZN6cameraC2ERKN3glm3vecILi3EfLNS0_9qualifierE0EEES5_S5_>:
    32f0:	55                   	push   %rbp
    32f1:	48 8d 2d 1a 24 03 00 	lea    0x3241a(%rip),%rbp        # 35712 <_ZStL8__ioinit>
    32f8:	48 89 ef             	mov    %rbp,%rdi
    32fb:	e8 40 f0 ff ff       	call   2340 <_ZNSt8ios_base4InitC1Ev@plt>
    3300:	48 8b 3d e9 1c 03 00 	mov    0x31ce9(%rip),%rdi        # 34ff0 <_ZNSt8ios_base4InitD1Ev@GLIBCXX_3.4>
    3307:	48 89 ee             	mov    %rbp,%rsi
    330a:	5d                   	pop    %rbp
    330b:	48 8d 15 26 1f 03 00 	lea    0x31f26(%rip),%rdx        # 35238 <__dso_handle>
    3312:	e9 99 ee ff ff       	jmp    21b0 <__cxa_atexit@plt>
    3317:	66 0f 1f 84 00 00 00 	nopw   0x0(%rax,%rax,1)
    331e:	00 00 

0000000000003320 <_start>:
    3320:	f3 0f 1e fa          	endbr64 
    3324:	31 ed                	xor    %ebp,%ebp
    3326:	49 89 d1             	mov    %rdx,%r9
    3329:	5e                   	pop    %rsi
    332a:	48 89 e2             	mov    %rsp,%rdx
    332d:	48 83 e4 f0          	and    $0xfffffffffffffff0,%rsp
    3331:	50                   	push   %rax
    3332:	54                   	push   %rsp
    3333:	45 31 c0             	xor    %r8d,%r8d
    3336:	31 c9                	xor    %ecx,%ecx
    3338:	48 8d 3d 91 fe ff ff 	lea    -0x16f(%rip),%rdi        # 31d0 <main>
    333f:	ff 15 7b 1c 03 00    	call   *0x31c7b(%rip)        # 34fc0 <__libc_start_main@GLIBC_2.34>
    3345:	f4                   	hlt    
    3346:	66 2e 0f 1f 84 00 00 	cs nopw 0x0(%rax,%rax,1)
    334d:	00 00 00 

0000000000003350 <deregister_tm_clones>:
    3350:	48 8d 3d 79 22 03 00 	lea    0x32279(%rip),%rdi        # 355d0 <__TMC_END__>
    3357:	48 8d 05 72 22 03 00 	lea    0x32272(%rip),%rax        # 355d0 <__TMC_END__>
    335e:	48 39 f8             	cmp    %rdi,%rax
    3361:	74 15                	je     3378 <deregister_tm_clones+0x28>
    3363:	48 8b 05 6e 1c 03 00 	mov    0x31c6e(%rip),%rax        # 34fd8 <_ITM_deregisterTMCloneTable@Base>
    336a:	48 85 c0             	test   %rax,%rax
    336d:	74 09                	je     3378 <deregister_tm_clones+0x28>
    336f:	ff e0                	jmp    *%rax
    3371:	0f 1f 80 00 00 00 00 	nopl   0x0(%rax)
    3378:	c3                   	ret    
    3379:	0f 1f 80 00 00 00 00 	nopl   0x0(%rax)

0000000000003380 <register_tm_clones>:
    3380:	48 8d 3d 49 22 03 00 	lea    0x32249(%rip),%rdi        # 355d0 <__TMC_END__>
    3387:	48 8d 35 42 22 03 00 	lea    0x32242(%rip),%rsi        # 355d0 <__TMC_END__>
    338e:	48 29 fe             	sub    %rdi,%rsi
    3391:	48 89 f0             	mov    %rsi,%rax
    3394:	48 c1 ee 3f          	shr    $0x3f,%rsi
    3398:	48 c1 f8 03          	sar    $0x3,%rax
    339c:	48 01 c6             	add    %rax,%rsi
    339f:	48 d1 fe             	sar    %rsi
    33a2:	74 14                	je     33b8 <register_tm_clones+0x38>
    33a4:	48 8b 05 3d 1c 03 00 	mov    0x31c3d(%rip),%rax        # 34fe8 <_ITM_registerTMCloneTable@Base>
    33ab:	48 85 c0             	test   %rax,%rax
    33ae:	74 08                	je     33b8 <register_tm_clones+0x38>
    33b0:	ff e0                	jmp    *%rax
    33b2:	66 0f 1f 44 00 00    	nopw   0x0(%rax,%rax,1)
    33b8:	c3                   	ret    
    33b9:	0f 1f 80 00 00 00 00 	nopl   0x0(%rax)

00000000000033c0 <__do_global_dtors_aux>:
    33c0:	f3 0f 1e fa          	endbr64 
    33c4:	80 3d 45 23 03 00 00 	cmpb   $0x0,0x32345(%rip)        # 35710 <completed.0>
    33cb:	75 33                	jne    3400 <__do_global_dtors_aux+0x40>
    33cd:	55                   	push   %rbp
    33ce:	48 83 3d e2 1b 03 00 	cmpq   $0x0,0x31be2(%rip)        # 34fb8 <__cxa_finalize@GLIBC_2.2.5>
    33d5:	00 
    33d6:	48 89 e5             	mov    %rsp,%rbp
    33d9:	74 0d                	je     33e8 <__do_global_dtors_aux+0x28>
    33db:	48 8b 3d 56 1e 03 00 	mov    0x31e56(%rip),%rdi        # 35238 <__dso_handle>
    33e2:	ff 15 d0 1b 03 00    	call   *0x31bd0(%rip)        # 34fb8 <__cxa_finalize@GLIBC_2.2.5>
    33e8:	e8 63 ff ff ff       	call   3350 <deregister_tm_clones>
    33ed:	c6 05 1c 23 03 00 01 	movb   $0x1,0x3231c(%rip)        # 35710 <completed.0>
    33f4:	5d                   	pop    %rbp
    33f5:	c3                   	ret    
    33f6:	66 2e 0f 1f 84 00 00 	cs nopw 0x0(%rax,%rax,1)
    33fd:	00 00 00 
    3400:	c3                   	ret    
    3401:	66 66 2e 0f 1f 84 00 	data16 cs nopw 0x0(%rax,%rax,1)
    3408:	00 00 00 00 
    340c:	0f 1f 40 00          	nopl   0x0(%rax)

0000000000003410 <frame_dummy>:
    3410:	f3 0f 1e fa          	endbr64 
    3414:	e9 67 ff ff ff       	jmp    3380 <register_tm_clones>
    3419:	0f 1f 80 00 00 00 00 	nopl   0x0(%rax)

0000000000003420 <_ZNSt7__cxx1112basic_stringIcSt11char_traitsIcESaIcEE12_M_constructIPcEEvT_S7_St20forward_iterator_tag.isra.0>:
    3420:	41 54                	push   %r12
    3422:	49 89 f4             	mov    %rsi,%r12
    3425:	55                   	push   %rbp
    3426:	48 89 fd             	mov    %rdi,%rbp
    3429:	53                   	push   %rbx
    342a:	48 89 d3             	mov    %rdx,%rbx
    342d:	48 85 d2             	test   %rdx,%rdx
    3430:	74 09                	je     343b <_ZNSt7__cxx1112basic_stringIcSt11char_traitsIcESaIcEE12_M_constructIPcEEvT_S7_St20forward_iterator_tag.isra.0+0x1b>
    3432:	48 85 f6             	test   %rsi,%rsi
    3435:	0f 84 7f 00 00 00    	je     34ba <_ZNSt7__cxx1112basic_stringIcSt11char_traitsIcESaIcEE12_M_constructIPcEEvT_S7_St20forward_iterator_tag.isra.0+0x9a>
    343b:	4c 29 e3             	sub    %r12,%rbx
    343e:	48 83 fb 0f          	cmp    $0xf,%rbx
    3442:	77 3c                	ja     3480 <_ZNSt7__cxx1112basic_stringIcSt11char_traitsIcESaIcEE12_M_constructIPcEEvT_S7_St20forward_iterator_tag.isra.0+0x60>
    3444:	48 8b 7d 00          	mov    0x0(%rbp),%rdi
    3448:	48 83 fb 01          	cmp    $0x1,%rbx
    344c:	74 12                	je     3460 <_ZNSt7__cxx1112basic_stringIcSt11char_traitsIcESaIcEE12_M_constructIPcEEvT_S7_St20forward_iterator_tag.isra.0+0x40>
    344e:	48 85 db             	test   %rbx,%rbx
    3451:	75 4b                	jne    349e <_ZNSt7__cxx1112basic_stringIcSt11char_traitsIcESaIcEE12_M_constructIPcEEvT_S7_St20forward_iterator_tag.isra.0+0x7e>
    3453:	48 89 5d 08          	mov    %rbx,0x8(%rbp)
    3457:	c6 04 1f 00          	movb   $0x0,(%rdi,%rbx,1)
    345b:	5b                   	pop    %rbx
    345c:	5d                   	pop    %rbp
    345d:	41 5c                	pop    %r12
    345f:	c3                   	ret    
    3460:	41 0f b6 04 24       	movzbl (%r12),%eax
    3465:	88 07                	mov    %al,(%rdi)
    3467:	48 8b 7d 00          	mov    0x0(%rbp),%rdi
    346b:	48 89 5d 08          	mov    %rbx,0x8(%rbp)
    346f:	c6 04 1f 00          	movb   $0x0,(%rdi,%rbx,1)
    3473:	5b                   	pop    %rbx
    3474:	5d                   	pop    %rbp
    3475:	41 5c                	pop    %r12
    3477:	c3                   	ret    
    3478:	0f 1f 84 00 00 00 00 	nopl   0x0(%rax,%rax,1)
    347f:	00 
    3480:	48 85 db             	test   %rbx,%rbx
    3483:	78 50                	js     34d5 <_ZNSt7__cxx1112basic_stringIcSt11char_traitsIcESaIcEE12_M_constructIPcEEvT_S7_St20forward_iterator_tag.isra.0+0xb5>
    3485:	48 89 df             	mov    %rbx,%rdi
    3488:	48 83 c7 01          	add    $0x1,%rdi
    348c:	78 42                	js     34d0 <_ZNSt7__cxx1112basic_stringIcSt11char_traitsIcESaIcEE12_M_constructIPcEEvT_S7_St20forward_iterator_tag.isra.0+0xb0>
    348e:	e8 3d ed ff ff       	call   21d0 <_Znwm@plt>
    3493:	48 89 5d 10          	mov    %rbx,0x10(%rbp)
    3497:	48 89 45 00          	mov    %rax,0x0(%rbp)
    349b:	48 89 c7             	mov    %rax,%rdi
    349e:	48 89 da             	mov    %rbx,%rdx
    34a1:	4c 89 e6             	mov    %r12,%rsi
    34a4:	e8 f7 ec ff ff       	call   21a0 <memcpy@plt>
    34a9:	48 8b 7d 00          	mov    0x0(%rbp),%rdi
    34ad:	48 89 5d 08          	mov    %rbx,0x8(%rbp)
    34b1:	c6 04 1f 00          	movb   $0x0,(%rdi,%rbx,1)
    34b5:	5b                   	pop    %rbx
    34b6:	5d                   	pop    %rbp
    34b7:	41 5c                	pop    %r12
    34b9:	c3                   	ret    
    34ba:	48 8d 3d 57 ab 02 00 	lea    0x2ab57(%rip),%rdi        # 2e018 <_IO_stdin_used+0x18>
    34c1:	e8 aa ec ff ff       	call   2170 <_ZSt19__throw_logic_errorPKc@plt>
    34c6:	66 2e 0f 1f 84 00 00 	cs nopw 0x0(%rax,%rax,1)
    34cd:	00 00 00 
    34d0:	e8 9b eb ff ff       	call   2070 <_ZSt17__throw_bad_allocv@plt>
    34d5:	48 8d 3d 66 ab 02 00 	lea    0x2ab66(%rip),%rdi        # 2e042 <_IO_stdin_used+0x42>
    34dc:	e8 ff eb ff ff       	call   20e0 <_ZSt20__throw_length_errorPKc@plt>
    34e1:	90                   	nop
    34e2:	66 66 2e 0f 1f 84 00 	data16 cs nopw 0x0(%rax,%rax,1)
    34e9:	00 00 00 00 
    34ed:	0f 1f 00             	nopl   (%rax)

00000000000034f0 <_ZN10arg_parser7findArgENSt7__cxx1112basic_stringIcSt11char_traitsIcESaIcEEE>:
    34f0:	41 57                	push   %r15
    34f2:	41 56                	push   %r14
    34f4:	41 55                	push   %r13
    34f6:	41 54                	push   %r12
    34f8:	55                   	push   %rbp
    34f9:	53                   	push   %rbx
    34fa:	48 89 d3             	mov    %rdx,%rbx
    34fd:	48 81 ec 98 00 00 00 	sub    $0x98,%rsp
    3504:	48 89 7c 24 38       	mov    %rdi,0x38(%rsp)
    3509:	48 8d 7c 24 60       	lea    0x60(%rsp),%rdi
    350e:	48 8d 6c 24 70       	lea    0x70(%rsp),%rbp
    3513:	48 89 74 24 48       	mov    %rsi,0x48(%rsp)
    3518:	be 2d 00 00 00       	mov    $0x2d,%esi
    351d:	64 48 8b 04 25 28 00 	mov    %fs:0x28,%rax
    3524:	00 00 
    3526:	48 89 84 24 88 00 00 	mov    %rax,0x88(%rsp)
    352d:	00 
    352e:	31 c0                	xor    %eax,%eax
    3530:	e8 2b 13 00 00       	call   4860 <_ZStplIcSt11char_traitsIcESaIcEENSt7__cxx1112basic_stringIT_T0_T1_EES5_RKS8_>
    3535:	48 8b 44 24 60       	mov    0x60(%rsp),%rax
    353a:	48 8b 3b             	mov    (%rbx),%rdi
    353d:	48 39 e8             	cmp    %rbp,%rax
    3540:	0f 84 3a 03 00 00    	je     3880 <_ZN10arg_parser7findArgENSt7__cxx1112basic_stringIcSt11char_traitsIcESaIcEEE+0x390>
    3546:	48 8d 53 10          	lea    0x10(%rbx),%rdx
    354a:	f3 0f 6f 44 24 68    	movdqu 0x68(%rsp),%xmm0
    3550:	48 39 d7             	cmp    %rdx,%rdi
    3553:	0f 84 6c 01 00 00    	je     36c5 <_ZN10arg_parser7findArgENSt7__cxx1112basic_stringIcSt11char_traitsIcESaIcEEE+0x1d5>
    3559:	48 8b 53 10          	mov    0x10(%rbx),%rdx
    355d:	48 89 03             	mov    %rax,(%rbx)
    3560:	0f 11 43 08          	movups %xmm0,0x8(%rbx)
    3564:	48 85 ff             	test   %rdi,%rdi
    3567:	0f 84 5f 01 00 00    	je     36cc <_ZN10arg_parser7findArgENSt7__cxx1112basic_stringIcSt11char_traitsIcESaIcEEE+0x1dc>
    356d:	48 89 7c 24 60       	mov    %rdi,0x60(%rsp)
    3572:	48 89 54 24 70       	mov    %rdx,0x70(%rsp)
    3577:	48 c7 44 24 68 00 00 	movq   $0x0,0x68(%rsp)
    357e:	00 00 
    3580:	c6 07 00             	movb   $0x0,(%rdi)
    3583:	48 8b 7c 24 60       	mov    0x60(%rsp),%rdi
    3588:	48 39 ef             	cmp    %rbp,%rdi
    358b:	74 0e                	je     359b <_ZN10arg_parser7findArgENSt7__cxx1112basic_stringIcSt11char_traitsIcESaIcEEE+0xab>
    358d:	48 8b 44 24 70       	mov    0x70(%rsp),%rax
    3592:	48 8d 70 01          	lea    0x1(%rax),%rsi
    3596:	e8 45 ec ff ff       	call   21e0 <_ZdlPvm@plt>
    359b:	48 8b 44 24 38       	mov    0x38(%rsp),%rax
    35a0:	48 8d 48 10          	lea    0x10(%rax),%rcx
    35a4:	c6 40 10 00          	movb   $0x0,0x10(%rax)
    35a8:	48 89 08             	mov    %rcx,(%rax)
    35ab:	48 89 4c 24 50       	mov    %rcx,0x50(%rsp)
    35b0:	48 8b 4c 24 48       	mov    0x48(%rsp),%rcx
    35b5:	48 c7 40 08 00 00 00 	movq   $0x0,0x8(%rax)
    35bc:	00 
    35bd:	48 8b 41 08          	mov    0x8(%rcx),%rax
    35c1:	48 8b 09             	mov    (%rcx),%rcx
    35c4:	48 89 44 24 40       	mov    %rax,0x40(%rsp)
    35c9:	48 29 c8             	sub    %rcx,%rax
    35cc:	48 c1 f8 05          	sar    $0x5,%rax
    35d0:	48 89 4c 24 58       	mov    %rcx,0x58(%rsp)
    35d5:	48 89 44 24 10       	mov    %rax,0x10(%rsp)
    35da:	0f 84 b7 00 00 00    	je     3697 <_ZN10arg_parser7findArgENSt7__cxx1112basic_stringIcSt11char_traitsIcESaIcEEE+0x1a7>
    35e0:	48 8b 6b 08          	mov    0x8(%rbx),%rbp
    35e4:	b8 01 00 00 00       	mov    $0x1,%eax
    35e9:	4c 8b 3b             	mov    (%rbx),%r15
    35ec:	45 31 e4             	xor    %r12d,%r12d
    35ef:	48 89 cb             	mov    %rcx,%rbx
    35f2:	48 29 e8             	sub    %rbp,%rax
    35f5:	48 89 44 24 08       	mov    %rax,0x8(%rsp)
    35fa:	66 0f 1f 44 00 00    	nopw   0x0(%rax,%rax,1)
    3600:	4c 89 e0             	mov    %r12,%rax
    3603:	48 8b 3b             	mov    (%rbx),%rdi
    3606:	48 89 5c 24 20       	mov    %rbx,0x20(%rsp)
    360b:	49 83 c4 01          	add    $0x1,%r12
    360f:	48 c1 e0 05          	shl    $0x5,%rax
    3613:	48 89 44 24 28       	mov    %rax,0x28(%rsp)
    3618:	48 8b 43 08          	mov    0x8(%rbx),%rax
    361c:	48 89 7c 24 18       	mov    %rdi,0x18(%rsp)
    3621:	48 85 ed             	test   %rbp,%rbp
    3624:	0f 84 c5 00 00 00    	je     36ef <_ZN10arg_parser7findArgENSt7__cxx1112basic_stringIcSt11char_traitsIcESaIcEEE+0x1ff>
    362a:	48 85 c0             	test   %rax,%rax
    362d:	74 59                	je     3688 <_ZN10arg_parser7findArgENSt7__cxx1112basic_stringIcSt11char_traitsIcESaIcEEE+0x198>
    362f:	4c 8d 34 07          	lea    (%rdi,%rax,1),%r14
    3633:	48 39 c5             	cmp    %rax,%rbp
    3636:	77 50                	ja     3688 <_ZN10arg_parser7findArgENSt7__cxx1112basic_stringIcSt11char_traitsIcESaIcEEE+0x198>
    3638:	48 03 44 24 08       	add    0x8(%rsp),%rax
    363d:	48 89 c2             	mov    %rax,%rdx
    3640:	74 46                	je     3688 <_ZN10arg_parser7findArgENSt7__cxx1112basic_stringIcSt11char_traitsIcESaIcEEE+0x198>
    3642:	48 89 5c 24 30       	mov    %rbx,0x30(%rsp)
    3647:	45 0f be 2f          	movsbl (%r15),%r13d
    364b:	44 89 ee             	mov    %r13d,%esi
    364e:	e8 ad eb ff ff       	call   2200 <memchr@plt>
    3653:	48 89 c3             	mov    %rax,%rbx
    3656:	48 85 c0             	test   %rax,%rax
    3659:	74 28                	je     3683 <_ZN10arg_parser7findArgENSt7__cxx1112basic_stringIcSt11char_traitsIcESaIcEEE+0x193>
    365b:	48 89 ea             	mov    %rbp,%rdx
    365e:	4c 89 fe             	mov    %r15,%rsi
    3661:	48 89 c7             	mov    %rax,%rdi
    3664:	e8 57 ea ff ff       	call   20c0 <memcmp@plt>
    3669:	85 c0                	test   %eax,%eax
    366b:	74 73                	je     36e0 <_ZN10arg_parser7findArgENSt7__cxx1112basic_stringIcSt11char_traitsIcESaIcEEE+0x1f0>
    366d:	48 8d 7b 01          	lea    0x1(%rbx),%rdi
    3671:	4c 89 f2             	mov    %r14,%rdx
    3674:	48 29 fa             	sub    %rdi,%rdx
    3677:	48 39 d5             	cmp    %rdx,%rbp
    367a:	77 07                	ja     3683 <_ZN10arg_parser7findArgENSt7__cxx1112basic_stringIcSt11char_traitsIcESaIcEEE+0x193>
    367c:	48 03 54 24 08       	add    0x8(%rsp),%rdx
    3681:	75 c8                	jne    364b <_ZN10arg_parser7findArgENSt7__cxx1112basic_stringIcSt11char_traitsIcESaIcEEE+0x15b>
    3683:	48 8b 5c 24 30       	mov    0x30(%rsp),%rbx
    3688:	48 83 c3 20          	add    $0x20,%rbx
    368c:	4c 39 64 24 10       	cmp    %r12,0x10(%rsp)
    3691:	0f 85 69 ff ff ff    	jne    3600 <_ZN10arg_parser7findArgENSt7__cxx1112basic_stringIcSt11char_traitsIcESaIcEEE+0x110>
    3697:	48 8b 84 24 88 00 00 	mov    0x88(%rsp),%rax
    369e:	00 
    369f:	64 48 2b 04 25 28 00 	sub    %fs:0x28,%rax
    36a6:	00 00 
    36a8:	0f 85 0e 03 00 00    	jne    39bc <_ZN10arg_parser7findArgENSt7__cxx1112basic_stringIcSt11char_traitsIcESaIcEEE+0x4cc>
    36ae:	48 8b 44 24 38       	mov    0x38(%rsp),%rax
    36b3:	48 81 c4 98 00 00 00 	add    $0x98,%rsp
    36ba:	5b                   	pop    %rbx
    36bb:	5d                   	pop    %rbp
    36bc:	41 5c                	pop    %r12
    36be:	41 5d                	pop    %r13
    36c0:	41 5e                	pop    %r14
    36c2:	41 5f                	pop    %r15
    36c4:	c3                   	ret    
    36c5:	48 89 03             	mov    %rax,(%rbx)
    36c8:	0f 11 43 08          	movups %xmm0,0x8(%rbx)
    36cc:	48 89 6c 24 60       	mov    %rbp,0x60(%rsp)
    36d1:	48 8d 6c 24 70       	lea    0x70(%rsp),%rbp
    36d6:	48 89 ef             	mov    %rbp,%rdi
    36d9:	e9 99 fe ff ff       	jmp    3577 <_ZN10arg_parser7findArgENSt7__cxx1112basic_stringIcSt11char_traitsIcESaIcEEE+0x87>
    36de:	66 90                	xchg   %ax,%ax
    36e0:	49 89 de             	mov    %rbx,%r14
    36e3:	48 8b 5c 24 30       	mov    0x30(%rsp),%rbx
    36e8:	4c 39 74 24 18       	cmp    %r14,0x18(%rsp)
    36ed:	75 99                	jne    3688 <_ZN10arg_parser7findArgENSt7__cxx1112basic_stringIcSt11char_traitsIcESaIcEEE+0x198>
    36ef:	4c 39 64 24 10       	cmp    %r12,0x10(%rsp)
    36f4:	76 92                	jbe    3688 <_ZN10arg_parser7findArgENSt7__cxx1112basic_stringIcSt11char_traitsIcESaIcEEE+0x198>
    36f6:	48 8b 44 24 58       	mov    0x58(%rsp),%rax
    36fb:	48 8b 4c 24 28       	mov    0x28(%rsp),%rcx
    3700:	48 8d 5c 08 20       	lea    0x20(%rax,%rcx,1),%rbx
    3705:	48 39 5c 24 38       	cmp    %rbx,0x38(%rsp)
    370a:	74 44                	je     3750 <_ZN10arg_parser7findArgENSt7__cxx1112basic_stringIcSt11char_traitsIcESaIcEEE+0x260>
    370c:	48 8b 6b 08          	mov    0x8(%rbx),%rbp
    3710:	48 83 fd 0f          	cmp    $0xf,%rbp
    3714:	0f 87 9c 01 00 00    	ja     38b6 <_ZN10arg_parser7findArgENSt7__cxx1112basic_stringIcSt11char_traitsIcESaIcEEE+0x3c6>
    371a:	48 85 ed             	test   %rbp,%rbp
    371d:	0f 85 76 02 00 00    	jne    3999 <_ZN10arg_parser7findArgENSt7__cxx1112basic_stringIcSt11char_traitsIcESaIcEEE+0x4a9>
    3723:	48 8b 44 24 38       	mov    0x38(%rsp),%rax
    3728:	48 8b 4c 24 28       	mov    0x28(%rsp),%rcx
    372d:	48 89 68 08          	mov    %rbp,0x8(%rax)
    3731:	48 8b 44 24 50       	mov    0x50(%rsp),%rax
    3736:	c6 04 28 00          	movb   $0x0,(%rax,%rbp,1)
    373a:	48 8b 44 24 48       	mov    0x48(%rsp),%rax
    373f:	48 03 08             	add    (%rax),%rcx
    3742:	48 8b 40 08          	mov    0x8(%rax),%rax
    3746:	48 89 4c 24 20       	mov    %rcx,0x20(%rsp)
    374b:	48 89 44 24 40       	mov    %rax,0x40(%rsp)
    3750:	48 8b 44 24 20       	mov    0x20(%rsp),%rax
    3755:	48 8b 4c 24 40       	mov    0x40(%rsp),%rcx
    375a:	4c 8d 60 20          	lea    0x20(%rax),%r12
    375e:	48 89 c8             	mov    %rcx,%rax
    3761:	4c 29 e0             	sub    %r12,%rax
    3764:	49 39 cc             	cmp    %rcx,%r12
    3767:	0f 84 b7 00 00 00    	je     3824 <_ZN10arg_parser7findArgENSt7__cxx1112basic_stringIcSt11char_traitsIcESaIcEEE+0x334>
    376d:	48 89 c5             	mov    %rax,%rbp
    3770:	48 c1 fd 05          	sar    $0x5,%rbp
    3774:	48 85 c0             	test   %rax,%rax
    3777:	0f 8e a7 00 00 00    	jle    3824 <_ZN10arg_parser7findArgENSt7__cxx1112basic_stringIcSt11char_traitsIcESaIcEEE+0x334>
    377d:	48 8b 44 24 20       	mov    0x20(%rsp),%rax
    3782:	48 8d 58 30          	lea    0x30(%rax),%rbx
    3786:	eb 4d                	jmp    37d5 <_ZN10arg_parser7findArgENSt7__cxx1112basic_stringIcSt11char_traitsIcESaIcEEE+0x2e5>
    3788:	0f 1f 84 00 00 00 00 	nopl   0x0(%rax,%rax,1)
    378f:	00 
    3790:	48 8d 4b e0          	lea    -0x20(%rbx),%rcx
    3794:	48 39 cf             	cmp    %rcx,%rdi
    3797:	0f 84 bb 01 00 00    	je     3958 <_ZN10arg_parser7findArgENSt7__cxx1112basic_stringIcSt11char_traitsIcESaIcEEE+0x468>
    379d:	48 89 43 d0          	mov    %rax,-0x30(%rbx)
    37a1:	48 8b 03             	mov    (%rbx),%rax
    37a4:	48 8b 4b e0          	mov    -0x20(%rbx),%rcx
    37a8:	48 89 53 d8          	mov    %rdx,-0x28(%rbx)
    37ac:	48 89 43 e0          	mov    %rax,-0x20(%rbx)
    37b0:	48 85 ff             	test   %rdi,%rdi
    37b3:	0f 84 ae 01 00 00    	je     3967 <_ZN10arg_parser7findArgENSt7__cxx1112basic_stringIcSt11char_traitsIcESaIcEEE+0x477>
    37b9:	48 89 7b f0          	mov    %rdi,-0x10(%rbx)
    37bd:	48 89 0b             	mov    %rcx,(%rbx)
    37c0:	48 c7 43 f8 00 00 00 	movq   $0x0,-0x8(%rbx)
    37c7:	00 
    37c8:	48 83 c3 20          	add    $0x20,%rbx
    37cc:	c6 07 00             	movb   $0x0,(%rdi)
    37cf:	48 83 ed 01          	sub    $0x1,%rbp
    37d3:	74 3e                	je     3813 <_ZN10arg_parser7findArgENSt7__cxx1112basic_stringIcSt11char_traitsIcESaIcEEE+0x323>
    37d5:	48 8b 43 f0          	mov    -0x10(%rbx),%rax
    37d9:	48 8b 7b d0          	mov    -0x30(%rbx),%rdi
    37dd:	48 8b 53 f8          	mov    -0x8(%rbx),%rdx
    37e1:	48 39 d8             	cmp    %rbx,%rax
    37e4:	75 aa                	jne    3790 <_ZN10arg_parser7findArgENSt7__cxx1112basic_stringIcSt11char_traitsIcESaIcEEE+0x2a0>
    37e6:	48 85 d2             	test   %rdx,%rdx
    37e9:	74 1a                	je     3805 <_ZN10arg_parser7findArgENSt7__cxx1112basic_stringIcSt11char_traitsIcESaIcEEE+0x315>
    37eb:	48 83 fa 01          	cmp    $0x1,%rdx
    37ef:	0f 84 7e 01 00 00    	je     3973 <_ZN10arg_parser7findArgENSt7__cxx1112basic_stringIcSt11char_traitsIcESaIcEEE+0x483>
    37f5:	48 89 de             	mov    %rbx,%rsi
    37f8:	e8 a3 e9 ff ff       	call   21a0 <memcpy@plt>
    37fd:	48 8b 53 f8          	mov    -0x8(%rbx),%rdx
    3801:	48 8b 7b d0          	mov    -0x30(%rbx),%rdi
    3805:	48 89 53 d8          	mov    %rdx,-0x28(%rbx)
    3809:	c6 04 17 00          	movb   $0x0,(%rdi,%rdx,1)
    380d:	48 8b 7b f0          	mov    -0x10(%rbx),%rdi
    3811:	eb ad                	jmp    37c0 <_ZN10arg_parser7findArgENSt7__cxx1112basic_stringIcSt11char_traitsIcESaIcEEE+0x2d0>
    3813:	48 8b 44 24 48       	mov    0x48(%rsp),%rax
    3818:	48 8b 40 08          	mov    0x8(%rax),%rax
    381c:	48 89 44 24 40       	mov    %rax,0x40(%rsp)
    3821:	4c 29 e0             	sub    %r12,%rax
    3824:	48 8b 6c 24 20       	mov    0x20(%rsp),%rbp
    3829:	48 01 c5             	add    %rax,%rbp
    382c:	48 3b 6c 24 40       	cmp    0x40(%rsp),%rbp
    3831:	0f 84 60 fe ff ff    	je     3697 <_ZN10arg_parser7findArgENSt7__cxx1112basic_stringIcSt11char_traitsIcESaIcEEE+0x1a7>
    3837:	48 89 eb             	mov    %rbp,%rbx
    383a:	66 0f 1f 44 00 00    	nopw   0x0(%rax,%rax,1)
    3840:	48 8b 3b             	mov    (%rbx),%rdi
    3843:	48 8d 43 10          	lea    0x10(%rbx),%rax
    3847:	48 39 c7             	cmp    %rax,%rdi
    384a:	0f 84 f0 00 00 00    	je     3940 <_ZN10arg_parser7findArgENSt7__cxx1112basic_stringIcSt11char_traitsIcESaIcEEE+0x450>
    3850:	48 8b 43 10          	mov    0x10(%rbx),%rax
    3854:	48 83 c3 20          	add    $0x20,%rbx
    3858:	48 8d 70 01          	lea    0x1(%rax),%rsi
    385c:	e8 7f e9 ff ff       	call   21e0 <_ZdlPvm@plt>
    3861:	48 3b 5c 24 40       	cmp    0x40(%rsp),%rbx
    3866:	75 d8                	jne    3840 <_ZN10arg_parser7findArgENSt7__cxx1112basic_stringIcSt11char_traitsIcESaIcEEE+0x350>
    3868:	48 8b 44 24 48       	mov    0x48(%rsp),%rax
    386d:	48 89 68 08          	mov    %rbp,0x8(%rax)
    3871:	e9 21 fe ff ff       	jmp    3697 <_ZN10arg_parser7findArgENSt7__cxx1112basic_stringIcSt11char_traitsIcESaIcEEE+0x1a7>
    3876:	66 2e 0f 1f 84 00 00 	cs nopw 0x0(%rax,%rax,1)
    387d:	00 00 00 
    3880:	48 8b 54 24 68       	mov    0x68(%rsp),%rdx
    3885:	48 85 d2             	test   %rdx,%rdx
    3888:	74 1a                	je     38a4 <_ZN10arg_parser7findArgENSt7__cxx1112basic_stringIcSt11char_traitsIcESaIcEEE+0x3b4>
    388a:	48 83 fa 01          	cmp    $0x1,%rdx
    388e:	0f 84 f1 00 00 00    	je     3985 <_ZN10arg_parser7findArgENSt7__cxx1112basic_stringIcSt11char_traitsIcESaIcEEE+0x495>
    3894:	48 89 ee             	mov    %rbp,%rsi
    3897:	e8 04 e9 ff ff       	call   21a0 <memcpy@plt>
    389c:	48 8b 54 24 68       	mov    0x68(%rsp),%rdx
    38a1:	48 8b 3b             	mov    (%rbx),%rdi
    38a4:	48 89 53 08          	mov    %rdx,0x8(%rbx)
    38a8:	c6 04 17 00          	movb   $0x0,(%rdi,%rdx,1)
    38ac:	48 8b 7c 24 60       	mov    0x60(%rsp),%rdi
    38b1:	e9 c1 fc ff ff       	jmp    3577 <_ZN10arg_parser7findArgENSt7__cxx1112basic_stringIcSt11char_traitsIcESaIcEEE+0x87>
    38b6:	48 85 ed             	test   %rbp,%rbp
    38b9:	0f 88 02 01 00 00    	js     39c1 <_ZN10arg_parser7findArgENSt7__cxx1112basic_stringIcSt11char_traitsIcESaIcEEE+0x4d1>
    38bf:	48 83 fd 1d          	cmp    $0x1d,%rbp
    38c3:	77 60                	ja     3925 <_ZN10arg_parser7findArgENSt7__cxx1112basic_stringIcSt11char_traitsIcESaIcEEE+0x435>
    38c5:	41 bc 1e 00 00 00    	mov    $0x1e,%r12d
    38cb:	bf 1f 00 00 00       	mov    $0x1f,%edi
    38d0:	e8 fb e8 ff ff       	call   21d0 <_Znwm@plt>
    38d5:	49 89 c5             	mov    %rax,%r13
    38d8:	48 8b 44 24 38       	mov    0x38(%rsp),%rax
    38dd:	48 8b 38             	mov    (%rax),%rdi
    38e0:	48 39 7c 24 50       	cmp    %rdi,0x50(%rsp)
    38e5:	74 12                	je     38f9 <_ZN10arg_parser7findArgENSt7__cxx1112basic_stringIcSt11char_traitsIcESaIcEEE+0x409>
    38e7:	48 8b 40 10          	mov    0x10(%rax),%rax
    38eb:	48 8d 70 01          	lea    0x1(%rax),%rsi
    38ef:	48 89 44 24 08       	mov    %rax,0x8(%rsp)
    38f4:	e8 e7 e8 ff ff       	call   21e0 <_ZdlPvm@plt>
    38f9:	48 8b 44 24 38       	mov    0x38(%rsp),%rax
    38fe:	4c 89 28             	mov    %r13,(%rax)
    3901:	4c 89 60 10          	mov    %r12,0x10(%rax)
    3905:	48 8b 33             	mov    (%rbx),%rsi
    3908:	48 89 ea             	mov    %rbp,%rdx
    390b:	4c 89 ef             	mov    %r13,%rdi
    390e:	e8 8d e8 ff ff       	call   21a0 <memcpy@plt>
    3913:	48 8b 44 24 38       	mov    0x38(%rsp),%rax
    3918:	48 8b 00             	mov    (%rax),%rax
    391b:	48 89 44 24 50       	mov    %rax,0x50(%rsp)
    3920:	e9 fe fd ff ff       	jmp    3723 <_ZN10arg_parser7findArgENSt7__cxx1112basic_stringIcSt11char_traitsIcESaIcEEE+0x233>
    3925:	48 89 ef             	mov    %rbp,%rdi
    3928:	49 89 ec             	mov    %rbp,%r12
    392b:	48 83 c7 01          	add    $0x1,%rdi
    392f:	79 9f                	jns    38d0 <_ZN10arg_parser7findArgENSt7__cxx1112basic_stringIcSt11char_traitsIcESaIcEEE+0x3e0>
    3931:	e8 3a e7 ff ff       	call   2070 <_ZSt17__throw_bad_allocv@plt>
    3936:	66 2e 0f 1f 84 00 00 	cs nopw 0x0(%rax,%rax,1)
    393d:	00 00 00 
    3940:	48 83 c3 20          	add    $0x20,%rbx
    3944:	48 3b 5c 24 40       	cmp    0x40(%rsp),%rbx
    3949:	0f 85 f1 fe ff ff    	jne    3840 <_ZN10arg_parser7findArgENSt7__cxx1112basic_stringIcSt11char_traitsIcESaIcEEE+0x350>
    394f:	e9 14 ff ff ff       	jmp    3868 <_ZN10arg_parser7findArgENSt7__cxx1112basic_stringIcSt11char_traitsIcESaIcEEE+0x378>
    3954:	0f 1f 40 00          	nopl   0x0(%rax)
    3958:	48 89 43 d0          	mov    %rax,-0x30(%rbx)
    395c:	48 8b 03             	mov    (%rbx),%rax
    395f:	48 89 53 d8          	mov    %rdx,-0x28(%rbx)
    3963:	48 89 43 e0          	mov    %rax,-0x20(%rbx)
    3967:	48 89 5b f0          	mov    %rbx,-0x10(%rbx)
    396b:	48 89 df             	mov    %rbx,%rdi
    396e:	e9 4d fe ff ff       	jmp    37c0 <_ZN10arg_parser7findArgENSt7__cxx1112basic_stringIcSt11char_traitsIcESaIcEEE+0x2d0>
    3973:	0f b6 03             	movzbl (%rbx),%eax
    3976:	88 07                	mov    %al,(%rdi)
    3978:	48 8b 53 f8          	mov    -0x8(%rbx),%rdx
    397c:	48 8b 7b d0          	mov    -0x30(%rbx),%rdi
    3980:	e9 80 fe ff ff       	jmp    3805 <_ZN10arg_parser7findArgENSt7__cxx1112basic_stringIcSt11char_traitsIcESaIcEEE+0x315>
    3985:	0f b6 44 24 70       	movzbl 0x70(%rsp),%eax
    398a:	88 07                	mov    %al,(%rdi)
    398c:	48 8b 54 24 68       	mov    0x68(%rsp),%rdx
    3991:	48 8b 3b             	mov    (%rbx),%rdi
    3994:	e9 0b ff ff ff       	jmp    38a4 <_ZN10arg_parser7findArgENSt7__cxx1112basic_stringIcSt11char_traitsIcESaIcEEE+0x3b4>
    3999:	48 8b 33             	mov    (%rbx),%rsi
    399c:	48 83 fd 01          	cmp    $0x1,%rbp
    39a0:	75 10                	jne    39b2 <_ZN10arg_parser7findArgENSt7__cxx1112basic_stringIcSt11char_traitsIcESaIcEEE+0x4c2>
    39a2:	0f b6 06             	movzbl (%rsi),%eax
    39a5:	48 8b 4c 24 38       	mov    0x38(%rsp),%rcx
    39aa:	88 41 10             	mov    %al,0x10(%rcx)
    39ad:	e9 71 fd ff ff       	jmp    3723 <_ZN10arg_parser7findArgENSt7__cxx1112basic_stringIcSt11char_traitsIcESaIcEEE+0x233>
    39b2:	4c 8b 6c 24 50       	mov    0x50(%rsp),%r13
    39b7:	e9 4c ff ff ff       	jmp    3908 <_ZN10arg_parser7findArgENSt7__cxx1112basic_stringIcSt11char_traitsIcESaIcEEE+0x418>
    39bc:	e8 4f e8 ff ff       	call   2210 <__stack_chk_fail@plt>
    39c1:	48 8d 3d 7a a6 02 00 	lea    0x2a67a(%rip),%rdi        # 2e042 <_IO_stdin_used+0x42>
    39c8:	e8 13 e7 ff ff       	call   20e0 <_ZSt20__throw_length_errorPKc@plt>
    39cd:	48 89 c5             	mov    %rax,%rbp
    39d0:	e9 8b ea ff ff       	jmp    2460 <_ZN10arg_parser7findArgENSt7__cxx1112basic_stringIcSt11char_traitsIcESaIcEEE.cold>
    39d5:	90                   	nop
    39d6:	66 2e 0f 1f 84 00 00 	cs nopw 0x0(%rax,%rax,1)
    39dd:	00 00 00 

00000000000039e0 <_ZN10arg_parser5parseENSt7__cxx1112basic_stringIcSt11char_traitsIcESaIcEEEbRf>:
    39e0:	41 57                	push   %r15
    39e2:	49 89 ff             	mov    %rdi,%r15
    39e5:	41 56                	push   %r14
    39e7:	41 55                	push   %r13
    39e9:	41 54                	push   %r12
    39eb:	49 89 f4             	mov    %rsi,%r12
    39ee:	55                   	push   %rbp
    39ef:	48 89 cd             	mov    %rcx,%rbp
    39f2:	53                   	push   %rbx
    39f3:	48 83 ec 78          	sub    $0x78,%rsp
    39f7:	48 8b 36             	mov    (%rsi),%rsi
    39fa:	89 54 24 0c          	mov    %edx,0xc(%rsp)
    39fe:	49 8b 54 24 08       	mov    0x8(%r12),%rdx
    3a03:	4c 8d 74 24 20       	lea    0x20(%rsp),%r14
    3a08:	4c 8d 6c 24 30       	lea    0x30(%rsp),%r13
    3a0d:	4c 89 f7             	mov    %r14,%rdi
    3a10:	48 01 f2             	add    %rsi,%rdx
    3a13:	64 48 8b 04 25 28 00 	mov    %fs:0x28,%rax
    3a1a:	00 00 
    3a1c:	48 89 44 24 68       	mov    %rax,0x68(%rsp)
    3a21:	31 c0                	xor    %eax,%eax
    3a23:	4c 89 6c 24 20       	mov    %r13,0x20(%rsp)
    3a28:	e8 f3 f9 ff ff       	call   3420 <_ZNSt7__cxx1112basic_stringIcSt11char_traitsIcESaIcEE12_M_constructIPcEEvT_S7_St20forward_iterator_tag.isra.0>
    3a2d:	48 8d 7c 24 40       	lea    0x40(%rsp),%rdi
    3a32:	4c 89 f2             	mov    %r14,%rdx
    3a35:	4c 89 fe             	mov    %r15,%rsi
    3a38:	e8 b3 fa ff ff       	call   34f0 <_ZN10arg_parser7findArgENSt7__cxx1112basic_stringIcSt11char_traitsIcESaIcEEE>
    3a3d:	e8 0e e6 ff ff       	call   2050 <__errno_location@plt>
    3a42:	4c 8b 7c 24 40       	mov    0x40(%rsp),%r15
    3a47:	48 8d 74 24 18       	lea    0x18(%rsp),%rsi
    3a4c:	48 89 c3             	mov    %rax,%rbx
    3a4f:	8b 00                	mov    (%rax),%eax
    3a51:	c7 03 00 00 00 00    	movl   $0x0,(%rbx)
    3a57:	4c 89 ff             	mov    %r15,%rdi
    3a5a:	89 44 24 08          	mov    %eax,0x8(%rsp)
    3a5e:	e8 3d e8 ff ff       	call   22a0 <strtof@plt>
    3a63:	4c 3b 7c 24 18       	cmp    0x18(%rsp),%r15
    3a68:	74 7a                	je     3ae4 <_ZN10arg_parser5parseENSt7__cxx1112basic_stringIcSt11char_traitsIcESaIcEEEbRf+0x104>
    3a6a:	8b 03                	mov    (%rbx),%eax
    3a6c:	83 f8 22             	cmp    $0x22,%eax
    3a6f:	74 67                	je     3ad8 <_ZN10arg_parser5parseENSt7__cxx1112basic_stringIcSt11char_traitsIcESaIcEEEbRf+0xf8>
    3a71:	85 c0                	test   %eax,%eax
    3a73:	74 5b                	je     3ad0 <_ZN10arg_parser5parseENSt7__cxx1112basic_stringIcSt11char_traitsIcESaIcEEEbRf+0xf0>
    3a75:	48 8b 7c 24 40       	mov    0x40(%rsp),%rdi
    3a7a:	48 8d 44 24 50       	lea    0x50(%rsp),%rax
    3a7f:	f3 0f 11 45 00       	movss  %xmm0,0x0(%rbp)
    3a84:	48 39 c7             	cmp    %rax,%rdi
    3a87:	74 0e                	je     3a97 <_ZN10arg_parser5parseENSt7__cxx1112basic_stringIcSt11char_traitsIcESaIcEEEbRf+0xb7>
    3a89:	48 8b 44 24 50       	mov    0x50(%rsp),%rax
    3a8e:	48 8d 70 01          	lea    0x1(%rax),%rsi
    3a92:	e8 49 e7 ff ff       	call   21e0 <_ZdlPvm@plt>
    3a97:	48 8b 7c 24 20       	mov    0x20(%rsp),%rdi
    3a9c:	4c 39 ef             	cmp    %r13,%rdi
    3a9f:	74 0e                	je     3aaf <_ZN10arg_parser5parseENSt7__cxx1112basic_stringIcSt11char_traitsIcESaIcEEEbRf+0xcf>
    3aa1:	48 8b 44 24 30       	mov    0x30(%rsp),%rax
    3aa6:	48 8d 70 01          	lea    0x1(%rax),%rsi
    3aaa:	e8 31 e7 ff ff       	call   21e0 <_ZdlPvm@plt>
    3aaf:	48 8b 44 24 68       	mov    0x68(%rsp),%rax
    3ab4:	64 48 2b 04 25 28 00 	sub    %fs:0x28,%rax
    3abb:	00 00 
    3abd:	75 31                	jne    3af0 <_ZN10arg_parser5parseENSt7__cxx1112basic_stringIcSt11char_traitsIcESaIcEEEbRf+0x110>
    3abf:	48 83 c4 78          	add    $0x78,%rsp
    3ac3:	5b                   	pop    %rbx
    3ac4:	5d                   	pop    %rbp
    3ac5:	41 5c                	pop    %r12
    3ac7:	41 5d                	pop    %r13
    3ac9:	41 5e                	pop    %r14
    3acb:	41 5f                	pop    %r15
    3acd:	c3                   	ret    
    3ace:	66 90                	xchg   %ax,%ax
    3ad0:	8b 44 24 08          	mov    0x8(%rsp),%eax
    3ad4:	89 03                	mov    %eax,(%rbx)
    3ad6:	eb 9d                	jmp    3a75 <_ZN10arg_parser5parseENSt7__cxx1112basic_stringIcSt11char_traitsIcESaIcEEEbRf+0x95>
    3ad8:	48 8d 3d 7b a5 02 00 	lea    0x2a57b(%rip),%rdi        # 2e05a <_IO_stdin_used+0x5a>
    3adf:	e8 1c e8 ff ff       	call   2300 <_ZSt20__throw_out_of_rangePKc@plt>
    3ae4:	48 8d 3d 6f a5 02 00 	lea    0x2a56f(%rip),%rdi        # 2e05a <_IO_stdin_used+0x5a>
    3aeb:	e8 30 e6 ff ff       	call   2120 <_ZSt24__throw_invalid_argumentPKc@plt>
    3af0:	e8 1b e7 ff ff       	call   2210 <__stack_chk_fail@plt>
    3af5:	48 89 c5             	mov    %rax,%rbp
    3af8:	49 89 d7             	mov    %rdx,%r15
    3afb:	e9 84 e9 ff ff       	jmp    2484 <_ZN10arg_parser5parseENSt7__cxx1112basic_stringIcSt11char_traitsIcESaIcEEEbRf.cold>
    3b00:	48 89 c5             	mov    %rax,%rbp
    3b03:	49 89 d7             	mov    %rdx,%r15
    3b06:	e9 a1 e9 ff ff       	jmp    24ac <_ZN10arg_parser5parseENSt7__cxx1112basic_stringIcSt11char_traitsIcESaIcEEEbRf.cold+0x28>
    3b0b:	48 89 c7             	mov    %rax,%rdi
    3b0e:	49 89 d7             	mov    %rdx,%r15
    3b11:	e9 b1 e9 ff ff       	jmp    24c7 <_ZN10arg_parser5parseENSt7__cxx1112basic_stringIcSt11char_traitsIcESaIcEEEbRf.cold+0x43>
    3b16:	66 2e 0f 1f 84 00 00 	cs nopw 0x0(%rax,%rax,1)
    3b1d:	00 00 00 

0000000000003b20 <_ZN10arg_parser5parseENSt7__cxx1112basic_stringIcSt11char_traitsIcESaIcEEEbRi>:
    3b20:	41 57                	push   %r15
    3b22:	49 89 ff             	mov    %rdi,%r15
    3b25:	41 56                	push   %r14
    3b27:	41 55                	push   %r13
    3b29:	41 54                	push   %r12
    3b2b:	49 89 f4             	mov    %rsi,%r12
    3b2e:	55                   	push   %rbp
    3b2f:	48 89 cd             	mov    %rcx,%rbp
    3b32:	53                   	push   %rbx
    3b33:	48 83 ec 78          	sub    $0x78,%rsp
    3b37:	48 8b 36             	mov    (%rsi),%rsi
    3b3a:	89 54 24 0c          	mov    %edx,0xc(%rsp)
    3b3e:	49 8b 54 24 08       	mov    0x8(%r12),%rdx
    3b43:	4c 8d 6c 24 20       	lea    0x20(%rsp),%r13
    3b48:	4c 8d 74 24 30       	lea    0x30(%rsp),%r14
    3b4d:	4c 89 ef             	mov    %r13,%rdi
    3b50:	48 01 f2             	add    %rsi,%rdx
    3b53:	64 48 8b 04 25 28 00 	mov    %fs:0x28,%rax
    3b5a:	00 00 
    3b5c:	48 89 44 24 68       	mov    %rax,0x68(%rsp)
    3b61:	31 c0                	xor    %eax,%eax
    3b63:	4c 89 74 24 20       	mov    %r14,0x20(%rsp)
    3b68:	e8 b3 f8 ff ff       	call   3420 <_ZNSt7__cxx1112basic_stringIcSt11char_traitsIcESaIcEE12_M_constructIPcEEvT_S7_St20forward_iterator_tag.isra.0>
    3b6d:	48 8d 7c 24 40       	lea    0x40(%rsp),%rdi
    3b72:	4c 89 ea             	mov    %r13,%rdx
    3b75:	4c 89 fe             	mov    %r15,%rsi
    3b78:	e8 73 f9 ff ff       	call   34f0 <_ZN10arg_parser7findArgENSt7__cxx1112basic_stringIcSt11char_traitsIcESaIcEEE>
    3b7d:	e8 ce e4 ff ff       	call   2050 <__errno_location@plt>
    3b82:	4c 8b 7c 24 40       	mov    0x40(%rsp),%r15
    3b87:	48 8d 74 24 18       	lea    0x18(%rsp),%rsi
    3b8c:	ba 0a 00 00 00       	mov    $0xa,%edx
    3b91:	48 89 c3             	mov    %rax,%rbx
    3b94:	8b 00                	mov    (%rax),%eax
    3b96:	c7 03 00 00 00 00    	movl   $0x0,(%rbx)
    3b9c:	4c 89 ff             	mov    %r15,%rdi
    3b9f:	89 44 24 08          	mov    %eax,0x8(%rsp)
    3ba3:	e8 38 e7 ff ff       	call   22e0 <strtol@plt>
    3ba8:	4c 3b 7c 24 18       	cmp    0x18(%rsp),%r15
    3bad:	0f 84 89 00 00 00    	je     3c3c <_ZN10arg_parser5parseENSt7__cxx1112basic_stringIcSt11char_traitsIcESaIcEEEbRi+0x11c>
    3bb3:	8b 0b                	mov    (%rbx),%ecx
    3bb5:	83 f9 22             	cmp    $0x22,%ecx
    3bb8:	74 76                	je     3c30 <_ZN10arg_parser5parseENSt7__cxx1112basic_stringIcSt11char_traitsIcESaIcEEEbRi+0x110>
    3bba:	ba 00 00 00 80       	mov    $0x80000000,%edx
    3bbf:	48 01 c2             	add    %rax,%rdx
    3bc2:	48 c1 ea 20          	shr    $0x20,%rdx
    3bc6:	75 68                	jne    3c30 <_ZN10arg_parser5parseENSt7__cxx1112basic_stringIcSt11char_traitsIcESaIcEEEbRi+0x110>
    3bc8:	85 c9                	test   %ecx,%ecx
    3bca:	74 5c                	je     3c28 <_ZN10arg_parser5parseENSt7__cxx1112basic_stringIcSt11char_traitsIcESaIcEEEbRi+0x108>
    3bcc:	48 8b 7c 24 40       	mov    0x40(%rsp),%rdi
    3bd1:	89 45 00             	mov    %eax,0x0(%rbp)
    3bd4:	48 8d 44 24 50       	lea    0x50(%rsp),%rax
    3bd9:	48 39 c7             	cmp    %rax,%rdi
    3bdc:	74 0e                	je     3bec <_ZN10arg_parser5parseENSt7__cxx1112basic_stringIcSt11char_traitsIcESaIcEEEbRi+0xcc>
    3bde:	48 8b 44 24 50       	mov    0x50(%rsp),%rax
    3be3:	48 8d 70 01          	lea    0x1(%rax),%rsi
    3be7:	e8 f4 e5 ff ff       	call   21e0 <_ZdlPvm@plt>
    3bec:	48 8b 7c 24 20       	mov    0x20(%rsp),%rdi
    3bf1:	4c 39 f7             	cmp    %r14,%rdi
    3bf4:	74 0e                	je     3c04 <_ZN10arg_parser5parseENSt7__cxx1112basic_stringIcSt11char_traitsIcESaIcEEEbRi+0xe4>
    3bf6:	48 8b 44 24 30       	mov    0x30(%rsp),%rax
    3bfb:	48 8d 70 01          	lea    0x1(%rax),%rsi
    3bff:	e8 dc e5 ff ff       	call   21e0 <_ZdlPvm@plt>
    3c04:	48 8b 44 24 68       	mov    0x68(%rsp),%rax
    3c09:	64 48 2b 04 25 28 00 	sub    %fs:0x28,%rax
    3c10:	00 00 
    3c12:	75 34                	jne    3c48 <_ZN10arg_parser5parseENSt7__cxx1112basic_stringIcSt11char_traitsIcESaIcEEEbRi+0x128>
    3c14:	48 83 c4 78          	add    $0x78,%rsp
    3c18:	5b                   	pop    %rbx
    3c19:	5d                   	pop    %rbp
    3c1a:	41 5c                	pop    %r12
    3c1c:	41 5d                	pop    %r13
    3c1e:	41 5e                	pop    %r14
    3c20:	41 5f                	pop    %r15
    3c22:	c3                   	ret    
    3c23:	0f 1f 44 00 00       	nopl   0x0(%rax,%rax,1)
    3c28:	8b 4c 24 08          	mov    0x8(%rsp),%ecx
    3c2c:	89 0b                	mov    %ecx,(%rbx)
    3c2e:	eb 9c                	jmp    3bcc <_ZN10arg_parser5parseENSt7__cxx1112basic_stringIcSt11char_traitsIcESaIcEEEbRi+0xac>
    3c30:	48 8d 3d 4b a4 02 00 	lea    0x2a44b(%rip),%rdi        # 2e082 <_IO_stdin_used+0x82>
    3c37:	e8 c4 e6 ff ff       	call   2300 <_ZSt20__throw_out_of_rangePKc@plt>
    3c3c:	48 8d 3d 3f a4 02 00 	lea    0x2a43f(%rip),%rdi        # 2e082 <_IO_stdin_used+0x82>
    3c43:	e8 d8 e4 ff ff       	call   2120 <_ZSt24__throw_invalid_argumentPKc@plt>
    3c48:	e8 c3 e5 ff ff       	call   2210 <__stack_chk_fail@plt>
    3c4d:	48 89 c5             	mov    %rax,%rbp
    3c50:	49 89 d7             	mov    %rdx,%r15
    3c53:	e9 a0 e9 ff ff       	jmp    25f8 <_ZN10arg_parser5parseENSt7__cxx1112basic_stringIcSt11char_traitsIcESaIcEEEbRi.cold>
    3c58:	48 89 c5             	mov    %rax,%rbp
    3c5b:	49 89 d7             	mov    %rdx,%r15
    3c5e:	e9 bd e9 ff ff       	jmp    2620 <_ZN10arg_parser5parseENSt7__cxx1112basic_stringIcSt11char_traitsIcESaIcEEEbRi.cold+0x28>
    3c63:	48 89 c7             	mov    %rax,%rdi
    3c66:	49 89 d7             	mov    %rdx,%r15
    3c69:	e9 cd e9 ff ff       	jmp    263b <_ZN10arg_parser5parseENSt7__cxx1112basic_stringIcSt11char_traitsIcESaIcEEEbRi.cold+0x43>
    3c6e:	66 90                	xchg   %ax,%ax

0000000000003c70 <_ZN10arg_parser5parseENSt7__cxx1112basic_stringIcSt11char_traitsIcESaIcEEEbRS5_>:
    3c70:	41 57                	push   %r15
    3c72:	49 89 f8             	mov    %rdi,%r8
    3c75:	41 56                	push   %r14
    3c77:	41 55                	push   %r13
    3c79:	41 54                	push   %r12
    3c7b:	49 89 f4             	mov    %rsi,%r12
    3c7e:	55                   	push   %rbp
    3c7f:	53                   	push   %rbx
    3c80:	48 89 cb             	mov    %rcx,%rbx
    3c83:	48 83 ec 68          	sub    $0x68,%rsp
    3c87:	4c 8b 36             	mov    (%rsi),%r14
    3c8a:	4c 8b 6e 08          	mov    0x8(%rsi),%r13
    3c8e:	89 54 24 04          	mov    %edx,0x4(%rsp)
    3c92:	48 8d 6c 24 20       	lea    0x20(%rsp),%rbp
    3c97:	64 48 8b 04 25 28 00 	mov    %fs:0x28,%rax
    3c9e:	00 00 
    3ca0:	48 89 44 24 58       	mov    %rax,0x58(%rsp)
    3ca5:	31 c0                	xor    %eax,%eax
    3ca7:	4c 89 f0             	mov    %r14,%rax
    3caa:	48 89 6c 24 10       	mov    %rbp,0x10(%rsp)
    3caf:	4c 01 e8             	add    %r13,%rax
    3cb2:	74 09                	je     3cbd <_ZN10arg_parser5parseENSt7__cxx1112basic_stringIcSt11char_traitsIcESaIcEEEbRS5_+0x4d>
    3cb4:	4d 85 f6             	test   %r14,%r14
    3cb7:	0f 84 c4 01 00 00    	je     3e81 <_ZN10arg_parser5parseENSt7__cxx1112basic_stringIcSt11char_traitsIcESaIcEEEbRS5_+0x211>
    3cbd:	49 83 fd 0f          	cmp    $0xf,%r13
    3cc1:	0f 87 19 01 00 00    	ja     3de0 <_ZN10arg_parser5parseENSt7__cxx1112basic_stringIcSt11char_traitsIcESaIcEEEbRS5_+0x170>
    3cc7:	49 83 fd 01          	cmp    $0x1,%r13
    3ccb:	0f 84 ff 00 00 00    	je     3dd0 <_ZN10arg_parser5parseENSt7__cxx1112basic_stringIcSt11char_traitsIcESaIcEEEbRS5_+0x160>
    3cd1:	48 89 e8             	mov    %rbp,%rax
    3cd4:	4d 85 ed             	test   %r13,%r13
    3cd7:	0f 85 d3 01 00 00    	jne    3eb0 <_ZN10arg_parser5parseENSt7__cxx1112basic_stringIcSt11char_traitsIcESaIcEEEbRS5_+0x240>
    3cdd:	4c 89 6c 24 18       	mov    %r13,0x18(%rsp)
    3ce2:	4c 8d 74 24 30       	lea    0x30(%rsp),%r14
    3ce7:	4c 8d 7c 24 10       	lea    0x10(%rsp),%r15
    3cec:	4c 89 c6             	mov    %r8,%rsi
    3cef:	42 c6 04 28 00       	movb   $0x0,(%rax,%r13,1)
    3cf4:	4c 89 fa             	mov    %r15,%rdx
    3cf7:	4c 89 f7             	mov    %r14,%rdi
    3cfa:	e8 f1 f7 ff ff       	call   34f0 <_ZN10arg_parser7findArgENSt7__cxx1112basic_stringIcSt11char_traitsIcESaIcEEE>
    3cff:	48 8b 44 24 30       	mov    0x30(%rsp),%rax
    3d04:	4c 8d 6c 24 40       	lea    0x40(%rsp),%r13
    3d09:	48 8b 3b             	mov    (%rbx),%rdi
    3d0c:	48 8b 54 24 38       	mov    0x38(%rsp),%rdx
    3d11:	4c 39 e8             	cmp    %r13,%rax
    3d14:	0f 84 1e 01 00 00    	je     3e38 <_ZN10arg_parser5parseENSt7__cxx1112basic_stringIcSt11char_traitsIcESaIcEEEbRS5_+0x1c8>
    3d1a:	48 8b 4c 24 40       	mov    0x40(%rsp),%rcx
    3d1f:	66 48 0f 6e c2       	movq   %rdx,%xmm0
    3d24:	48 8d 73 10          	lea    0x10(%rbx),%rsi
    3d28:	66 48 0f 6e c9       	movq   %rcx,%xmm1
    3d2d:	66 0f 6c c1          	punpcklqdq %xmm1,%xmm0
    3d31:	48 39 f7             	cmp    %rsi,%rdi
    3d34:	0f 84 2e 01 00 00    	je     3e68 <_ZN10arg_parser5parseENSt7__cxx1112basic_stringIcSt11char_traitsIcESaIcEEEbRS5_+0x1f8>
    3d3a:	48 8b 73 10          	mov    0x10(%rbx),%rsi
    3d3e:	48 89 03             	mov    %rax,(%rbx)
    3d41:	48 89 53 08          	mov    %rdx,0x8(%rbx)
    3d45:	48 89 4b 10          	mov    %rcx,0x10(%rbx)
    3d49:	48 85 ff             	test   %rdi,%rdi
    3d4c:	0f 84 1d 01 00 00    	je     3e6f <_ZN10arg_parser5parseENSt7__cxx1112basic_stringIcSt11char_traitsIcESaIcEEEbRS5_+0x1ff>
    3d52:	48 89 7c 24 30       	mov    %rdi,0x30(%rsp)
    3d57:	48 89 74 24 40       	mov    %rsi,0x40(%rsp)
    3d5c:	48 c7 44 24 38 00 00 	movq   $0x0,0x38(%rsp)
    3d63:	00 00 
    3d65:	c6 07 00             	movb   $0x0,(%rdi)
    3d68:	48 8b 7c 24 30       	mov    0x30(%rsp),%rdi
    3d6d:	4c 39 ef             	cmp    %r13,%rdi
    3d70:	74 0e                	je     3d80 <_ZN10arg_parser5parseENSt7__cxx1112basic_stringIcSt11char_traitsIcESaIcEEEbRS5_+0x110>
    3d72:	48 8b 44 24 40       	mov    0x40(%rsp),%rax
    3d77:	48 8d 70 01          	lea    0x1(%rax),%rsi
    3d7b:	e8 60 e4 ff ff       	call   21e0 <_ZdlPvm@plt>
    3d80:	48 8b 7c 24 10       	mov    0x10(%rsp),%rdi
    3d85:	48 39 ef             	cmp    %rbp,%rdi
    3d88:	74 0e                	je     3d98 <_ZN10arg_parser5parseENSt7__cxx1112basic_stringIcSt11char_traitsIcESaIcEEEbRS5_+0x128>
    3d8a:	48 8b 44 24 20       	mov    0x20(%rsp),%rax
    3d8f:	48 8d 70 01          	lea    0x1(%rax),%rsi
    3d93:	e8 48 e4 ff ff       	call   21e0 <_ZdlPvm@plt>
    3d98:	80 7c 24 04 00       	cmpb   $0x0,0x4(%rsp)
    3d9d:	74 0b                	je     3daa <_ZN10arg_parser5parseENSt7__cxx1112basic_stringIcSt11char_traitsIcESaIcEEEbRS5_+0x13a>
    3d9f:	48 83 7b 08 00       	cmpq   $0x0,0x8(%rbx)
    3da4:	0f 84 c2 e9 ff ff    	je     276c <_ZN10arg_parser5parseENSt7__cxx1112basic_stringIcSt11char_traitsIcESaIcEEEbRS5_.cold>
    3daa:	48 8b 44 24 58       	mov    0x58(%rsp),%rax
    3daf:	64 48 2b 04 25 28 00 	sub    %fs:0x28,%rax
    3db6:	00 00 
    3db8:	0f 85 fa 00 00 00    	jne    3eb8 <_ZN10arg_parser5parseENSt7__cxx1112basic_stringIcSt11char_traitsIcESaIcEEEbRS5_+0x248>
    3dbe:	48 83 c4 68          	add    $0x68,%rsp
    3dc2:	5b                   	pop    %rbx
    3dc3:	5d                   	pop    %rbp
    3dc4:	41 5c                	pop    %r12
    3dc6:	41 5d                	pop    %r13
    3dc8:	41 5e                	pop    %r14
    3dca:	41 5f                	pop    %r15
    3dcc:	c3                   	ret    
    3dcd:	0f 1f 00             	nopl   (%rax)
    3dd0:	41 0f b6 06          	movzbl (%r14),%eax
    3dd4:	88 44 24 20          	mov    %al,0x20(%rsp)
    3dd8:	48 89 e8             	mov    %rbp,%rax
    3ddb:	e9 fd fe ff ff       	jmp    3cdd <_ZN10arg_parser5parseENSt7__cxx1112basic_stringIcSt11char_traitsIcESaIcEEEbRS5_+0x6d>
    3de0:	4d 85 ed             	test   %r13,%r13
    3de3:	0f 88 d4 00 00 00    	js     3ebd <_ZN10arg_parser5parseENSt7__cxx1112basic_stringIcSt11char_traitsIcESaIcEEEbRS5_+0x24d>
    3de9:	4c 89 ef             	mov    %r13,%rdi
    3dec:	48 83 c7 01          	add    $0x1,%rdi
    3df0:	0f 88 b2 00 00 00    	js     3ea8 <_ZN10arg_parser5parseENSt7__cxx1112basic_stringIcSt11char_traitsIcESaIcEEEbRS5_+0x238>
    3df6:	4c 89 44 24 08       	mov    %r8,0x8(%rsp)
    3dfb:	e8 d0 e3 ff ff       	call   21d0 <_Znwm@plt>
    3e00:	4c 89 6c 24 20       	mov    %r13,0x20(%rsp)
    3e05:	4c 8b 44 24 08       	mov    0x8(%rsp),%r8
    3e0a:	48 89 44 24 10       	mov    %rax,0x10(%rsp)
    3e0f:	48 89 c7             	mov    %rax,%rdi
    3e12:	4c 89 ea             	mov    %r13,%rdx
    3e15:	4c 89 f6             	mov    %r14,%rsi
    3e18:	4c 89 44 24 08       	mov    %r8,0x8(%rsp)
    3e1d:	e8 7e e3 ff ff       	call   21a0 <memcpy@plt>
    3e22:	48 8b 44 24 10       	mov    0x10(%rsp),%rax
    3e27:	4c 8b 44 24 08       	mov    0x8(%rsp),%r8
    3e2c:	e9 ac fe ff ff       	jmp    3cdd <_ZN10arg_parser5parseENSt7__cxx1112basic_stringIcSt11char_traitsIcESaIcEEEbRS5_+0x6d>
    3e31:	0f 1f 80 00 00 00 00 	nopl   0x0(%rax)
    3e38:	48 85 d2             	test   %rdx,%rdx
    3e3b:	74 16                	je     3e53 <_ZN10arg_parser5parseENSt7__cxx1112basic_stringIcSt11char_traitsIcESaIcEEEbRS5_+0x1e3>
    3e3d:	48 83 fa 01          	cmp    $0x1,%rdx
    3e41:	74 4d                	je     3e90 <_ZN10arg_parser5parseENSt7__cxx1112basic_stringIcSt11char_traitsIcESaIcEEEbRS5_+0x220>
    3e43:	4c 89 ee             	mov    %r13,%rsi
    3e46:	e8 55 e3 ff ff       	call   21a0 <memcpy@plt>
    3e4b:	48 8b 54 24 38       	mov    0x38(%rsp),%rdx
    3e50:	48 8b 3b             	mov    (%rbx),%rdi
    3e53:	48 89 53 08          	mov    %rdx,0x8(%rbx)
    3e57:	c6 04 17 00          	movb   $0x0,(%rdi,%rdx,1)
    3e5b:	48 8b 7c 24 30       	mov    0x30(%rsp),%rdi
    3e60:	e9 f7 fe ff ff       	jmp    3d5c <_ZN10arg_parser5parseENSt7__cxx1112basic_stringIcSt11char_traitsIcESaIcEEEbRS5_+0xec>
    3e65:	0f 1f 00             	nopl   (%rax)
    3e68:	48 89 03             	mov    %rax,(%rbx)
    3e6b:	0f 11 43 08          	movups %xmm0,0x8(%rbx)
    3e6f:	4c 89 6c 24 30       	mov    %r13,0x30(%rsp)
    3e74:	4c 8d 6c 24 40       	lea    0x40(%rsp),%r13
    3e79:	4c 89 ef             	mov    %r13,%rdi
    3e7c:	e9 db fe ff ff       	jmp    3d5c <_ZN10arg_parser5parseENSt7__cxx1112basic_stringIcSt11char_traitsIcESaIcEEEbRS5_+0xec>
    3e81:	48 8d 3d 90 a1 02 00 	lea    0x2a190(%rip),%rdi        # 2e018 <_IO_stdin_used+0x18>
    3e88:	e8 e3 e2 ff ff       	call   2170 <_ZSt19__throw_logic_errorPKc@plt>
    3e8d:	0f 1f 00             	nopl   (%rax)
    3e90:	0f b6 44 24 40       	movzbl 0x40(%rsp),%eax
    3e95:	88 07                	mov    %al,(%rdi)
    3e97:	48 8b 54 24 38       	mov    0x38(%rsp),%rdx
    3e9c:	48 8b 3b             	mov    (%rbx),%rdi
    3e9f:	eb b2                	jmp    3e53 <_ZN10arg_parser5parseENSt7__cxx1112basic_stringIcSt11char_traitsIcESaIcEEEbRS5_+0x1e3>
    3ea1:	0f 1f 80 00 00 00 00 	nopl   0x0(%rax)
    3ea8:	e8 c3 e1 ff ff       	call   2070 <_ZSt17__throw_bad_allocv@plt>
    3ead:	0f 1f 00             	nopl   (%rax)
    3eb0:	48 89 ef             	mov    %rbp,%rdi
    3eb3:	e9 5a ff ff ff       	jmp    3e12 <_ZN10arg_parser5parseENSt7__cxx1112basic_stringIcSt11char_traitsIcESaIcEEEbRS5_+0x1a2>
    3eb8:	e8 53 e3 ff ff       	call   2210 <__stack_chk_fail@plt>
    3ebd:	48 8d 3d 7e a1 02 00 	lea    0x2a17e(%rip),%rdi        # 2e042 <_IO_stdin_used+0x42>
    3ec4:	e8 17 e2 ff ff       	call   20e0 <_ZSt20__throw_length_errorPKc@plt>
    3ec9:	49 89 c4             	mov    %rax,%r12
    3ecc:	e9 1d e9 ff ff       	jmp    27ee <_ZN10arg_parser5parseENSt7__cxx1112basic_stringIcSt11char_traitsIcESaIcEEEbRS5_.cold+0x82>
    3ed1:	90                   	nop
    3ed2:	66 66 2e 0f 1f 84 00 	data16 cs nopw 0x0(%rax,%rax,1)
    3ed9:	00 00 00 00 
    3edd:	0f 1f 00             	nopl   (%rax)

0000000000003ee0 <_ZN10arg_parser5parseENSt7__cxx1112basic_stringIcSt11char_traitsIcESaIcEEEbRb>:
    3ee0:	41 57                	push   %r15
    3ee2:	41 56                	push   %r14
    3ee4:	41 55                	push   %r13
    3ee6:	41 89 d5             	mov    %edx,%r13d
    3ee9:	41 54                	push   %r12
    3eeb:	49 89 f4             	mov    %rsi,%r12
    3eee:	55                   	push   %rbp
    3eef:	48 89 fd             	mov    %rdi,%rbp
    3ef2:	53                   	push   %rbx
    3ef3:	48 89 cb             	mov    %rcx,%rbx
    3ef6:	48 81 ec 88 00 00 00 	sub    $0x88,%rsp
    3efd:	48 8b 36             	mov    (%rsi),%rsi
    3f00:	49 8b 54 24 08       	mov    0x8(%r12),%rdx
    3f05:	64 48 8b 04 25 28 00 	mov    %fs:0x28,%rax
    3f0c:	00 00 
    3f0e:	48 89 44 24 78       	mov    %rax,0x78(%rsp)
    3f13:	31 c0                	xor    %eax,%eax
    3f15:	4c 8d 7c 24 50       	lea    0x50(%rsp),%r15
    3f1a:	4c 8d 74 24 60       	lea    0x60(%rsp),%r14
    3f1f:	48 01 f2             	add    %rsi,%rdx
    3f22:	4c 89 ff             	mov    %r15,%rdi
    3f25:	4c 89 74 24 50       	mov    %r14,0x50(%rsp)
    3f2a:	e8 f1 f4 ff ff       	call   3420 <_ZNSt7__cxx1112basic_stringIcSt11char_traitsIcESaIcEE12_M_constructIPcEEvT_S7_St20forward_iterator_tag.isra.0>
    3f2f:	48 8d 7c 24 10       	lea    0x10(%rsp),%rdi
    3f34:	4c 89 fa             	mov    %r15,%rdx
    3f37:	48 89 ee             	mov    %rbp,%rsi
    3f3a:	e8 b1 f5 ff ff       	call   34f0 <_ZN10arg_parser7findArgENSt7__cxx1112basic_stringIcSt11char_traitsIcESaIcEEE>
    3f3f:	48 8b 7c 24 50       	mov    0x50(%rsp),%rdi
    3f44:	4c 39 f7             	cmp    %r14,%rdi
    3f47:	74 0e                	je     3f57 <_ZN10arg_parser5parseENSt7__cxx1112basic_stringIcSt11char_traitsIcESaIcEEEbRb+0x77>
    3f49:	48 8b 44 24 60       	mov    0x60(%rsp),%rax
    3f4e:	48 8d 70 01          	lea    0x1(%rax),%rsi
    3f52:	e8 89 e2 ff ff       	call   21e0 <_ZdlPvm@plt>
    3f57:	48 8b 6c 24 18       	mov    0x18(%rsp),%rbp
    3f5c:	48 8b 7c 24 10       	mov    0x10(%rsp),%rdi
    3f61:	48 83 fd 04          	cmp    $0x4,%rbp
    3f65:	77 59                	ja     3fc0 <_ZN10arg_parser5parseENSt7__cxx1112basic_stringIcSt11char_traitsIcESaIcEEEbRb+0xe0>
    3f67:	48 85 ed             	test   %rbp,%rbp
    3f6a:	0f 85 b0 00 00 00    	jne    4020 <_ZN10arg_parser5parseENSt7__cxx1112basic_stringIcSt11char_traitsIcESaIcEEEbRb+0x140>
    3f70:	45 84 ed             	test   %r13b,%r13b
    3f73:	0f 85 dd e8 ff ff    	jne    2856 <_ZN10arg_parser5parseENSt7__cxx1112basic_stringIcSt11char_traitsIcESaIcEEEbRb.cold>
    3f79:	48 8d 44 24 20       	lea    0x20(%rsp),%rax
    3f7e:	48 39 c7             	cmp    %rax,%rdi
    3f81:	74 0e                	je     3f91 <_ZN10arg_parser5parseENSt7__cxx1112basic_stringIcSt11char_traitsIcESaIcEEEbRb+0xb1>
    3f83:	48 8b 44 24 20       	mov    0x20(%rsp),%rax
    3f88:	48 8d 70 01          	lea    0x1(%rax),%rsi
    3f8c:	e8 4f e2 ff ff       	call   21e0 <_ZdlPvm@plt>
    3f91:	48 8b 44 24 78       	mov    0x78(%rsp),%rax
    3f96:	64 48 2b 04 25 28 00 	sub    %fs:0x28,%rax
    3f9d:	00 00 
    3f9f:	0f 85 f6 00 00 00    	jne    409b <_ZN10arg_parser5parseENSt7__cxx1112basic_stringIcSt11char_traitsIcESaIcEEEbRb+0x1bb>
    3fa5:	48 81 c4 88 00 00 00 	add    $0x88,%rsp
    3fac:	5b                   	pop    %rbx
    3fad:	5d                   	pop    %rbp
    3fae:	41 5c                	pop    %r12
    3fb0:	41 5d                	pop    %r13
    3fb2:	41 5e                	pop    %r14
    3fb4:	41 5f                	pop    %r15
    3fb6:	c3                   	ret    
    3fb7:	66 0f 1f 84 00 00 00 	nopw   0x0(%rax,%rax,1)
    3fbe:	00 00 
    3fc0:	81 3f 74 72 75 65    	cmpl   $0x65757274,(%rdi)
    3fc6:	75 10                	jne    3fd8 <_ZN10arg_parser5parseENSt7__cxx1112basic_stringIcSt11char_traitsIcESaIcEEEbRb+0xf8>
    3fc8:	48 8d 45 fc          	lea    -0x4(%rbp),%rax
    3fcc:	48 3d ff ff ff 7f    	cmp    $0x7fffffff,%rax
    3fd2:	0f 8e a8 00 00 00    	jle    4080 <_ZN10arg_parser5parseENSt7__cxx1112basic_stringIcSt11char_traitsIcESaIcEEEbRb+0x1a0>
    3fd8:	48 83 fd 05          	cmp    $0x5,%rbp
    3fdc:	74 5f                	je     403d <_ZN10arg_parser5parseENSt7__cxx1112basic_stringIcSt11char_traitsIcESaIcEEEbRb+0x15d>
    3fde:	81 3f 66 61 6c 73    	cmpl   $0x736c6166,(%rdi)
    3fe4:	75 8a                	jne    3f70 <_ZN10arg_parser5parseENSt7__cxx1112basic_stringIcSt11char_traitsIcESaIcEEEbRb+0x90>
    3fe6:	80 7f 04 65          	cmpb   $0x65,0x4(%rdi)
    3fea:	75 84                	jne    3f70 <_ZN10arg_parser5parseENSt7__cxx1112basic_stringIcSt11char_traitsIcESaIcEEEbRb+0x90>
    3fec:	48 83 ed 05          	sub    $0x5,%rbp
    3ff0:	48 81 fd ff ff ff 7f 	cmp    $0x7fffffff,%rbp
    3ff7:	0f 8f 73 ff ff ff    	jg     3f70 <_ZN10arg_parser5parseENSt7__cxx1112basic_stringIcSt11char_traitsIcESaIcEEEbRb+0x90>
    3ffd:	48 81 fd 00 00 00 80 	cmp    $0xffffffff80000000,%rbp
    4004:	0f 8c 66 ff ff ff    	jl     3f70 <_ZN10arg_parser5parseENSt7__cxx1112basic_stringIcSt11char_traitsIcESaIcEEEbRb+0x90>
    400a:	66 0f 1f 44 00 00    	nopw   0x0(%rax,%rax,1)
    4010:	85 ed                	test   %ebp,%ebp
    4012:	0f 85 58 ff ff ff    	jne    3f70 <_ZN10arg_parser5parseENSt7__cxx1112basic_stringIcSt11char_traitsIcESaIcEEEbRb+0x90>
    4018:	c6 03 00             	movb   $0x0,(%rbx)
    401b:	e9 59 ff ff ff       	jmp    3f79 <_ZN10arg_parser5parseENSt7__cxx1112basic_stringIcSt11char_traitsIcESaIcEEEbRb+0x99>
    4020:	48 89 ea             	mov    %rbp,%rdx
    4023:	48 8d 35 63 a0 02 00 	lea    0x2a063(%rip),%rsi        # 2e08d <_IO_stdin_used+0x8d>
    402a:	48 89 7c 24 08       	mov    %rdi,0x8(%rsp)
    402f:	e8 8c e0 ff ff       	call   20c0 <memcmp@plt>
    4034:	48 8b 7c 24 08       	mov    0x8(%rsp),%rdi
    4039:	85 c0                	test   %eax,%eax
    403b:	74 2b                	je     4068 <_ZN10arg_parser5parseENSt7__cxx1112basic_stringIcSt11char_traitsIcESaIcEEEbRb+0x188>
    403d:	48 89 ea             	mov    %rbp,%rdx
    4040:	48 8d 35 40 a0 02 00 	lea    0x2a040(%rip),%rsi        # 2e087 <_IO_stdin_used+0x87>
    4047:	48 89 7c 24 08       	mov    %rdi,0x8(%rsp)
    404c:	e8 6f e0 ff ff       	call   20c0 <memcmp@plt>
    4051:	48 8b 7c 24 08       	mov    0x8(%rsp),%rdi
    4056:	85 c0                	test   %eax,%eax
    4058:	0f 85 12 ff ff ff    	jne    3f70 <_ZN10arg_parser5parseENSt7__cxx1112basic_stringIcSt11char_traitsIcESaIcEEEbRb+0x90>
    405e:	48 83 ed 05          	sub    $0x5,%rbp
    4062:	eb ac                	jmp    4010 <_ZN10arg_parser5parseENSt7__cxx1112basic_stringIcSt11char_traitsIcESaIcEEEbRb+0x130>
    4064:	0f 1f 40 00          	nopl   0x0(%rax)
    4068:	83 fd 04             	cmp    $0x4,%ebp
    406b:	75 d0                	jne    403d <_ZN10arg_parser5parseENSt7__cxx1112basic_stringIcSt11char_traitsIcESaIcEEEbRb+0x15d>
    406d:	0f 1f 00             	nopl   (%rax)
    4070:	c6 03 01             	movb   $0x1,(%rbx)
    4073:	e9 01 ff ff ff       	jmp    3f79 <_ZN10arg_parser5parseENSt7__cxx1112basic_stringIcSt11char_traitsIcESaIcEEEbRb+0x99>
    4078:	0f 1f 84 00 00 00 00 	nopl   0x0(%rax,%rax,1)
    407f:	00 
    4080:	48 3d 00 00 00 80    	cmp    $0xffffffff80000000,%rax
    4086:	0f 8c 4c ff ff ff    	jl     3fd8 <_ZN10arg_parser5parseENSt7__cxx1112basic_stringIcSt11char_traitsIcESaIcEEEbRb+0xf8>
    408c:	85 c0                	test   %eax,%eax
    408e:	74 e0                	je     4070 <_ZN10arg_parser5parseENSt7__cxx1112basic_stringIcSt11char_traitsIcESaIcEEEbRb+0x190>
    4090:	48 83 fd 05          	cmp    $0x5,%rbp
    4094:	74 a7                	je     403d <_ZN10arg_parser5parseENSt7__cxx1112basic_stringIcSt11char_traitsIcESaIcEEEbRb+0x15d>
    4096:	e9 43 ff ff ff       	jmp    3fde <_ZN10arg_parser5parseENSt7__cxx1112basic_stringIcSt11char_traitsIcESaIcEEEbRb+0xfe>
    409b:	e8 70 e1 ff ff       	call   2210 <__stack_chk_fail@plt>
    40a0:	48 89 c5             	mov    %rax,%rbp
    40a3:	e9 3a e8 ff ff       	jmp    28e2 <_ZN10arg_parser5parseENSt7__cxx1112basic_stringIcSt11char_traitsIcESaIcEEEbRb.cold+0x8c>
    40a8:	0f 1f 84 00 00 00 00 	nopl   0x0(%rax,%rax,1)
    40af:	00 

00000000000040b0 <_ZN10arg_parser8parseStrENSt7__cxx1112basic_stringIcSt11char_traitsIcESaIcEEEbSt8functionIFvRS5_EE>:
    40b0:	41 57                	push   %r15
    40b2:	49 89 f8             	mov    %rdi,%r8
    40b5:	41 56                	push   %r14
    40b7:	41 89 d6             	mov    %edx,%r14d
    40ba:	41 55                	push   %r13
    40bc:	41 54                	push   %r12
    40be:	49 89 f4             	mov    %rsi,%r12
    40c1:	55                   	push   %rbp
    40c2:	48 89 cd             	mov    %rcx,%rbp
    40c5:	53                   	push   %rbx
    40c6:	48 81 ec 88 00 00 00 	sub    $0x88,%rsp
    40cd:	4c 8b 3e             	mov    (%rsi),%r15
    40d0:	48 8b 5e 08          	mov    0x8(%rsi),%rbx
    40d4:	64 48 8b 04 25 28 00 	mov    %fs:0x28,%rax
    40db:	00 00 
    40dd:	48 89 44 24 78       	mov    %rax,0x78(%rsp)
    40e2:	31 c0                	xor    %eax,%eax
    40e4:	4c 8d 6c 24 60       	lea    0x60(%rsp),%r13
    40e9:	4c 89 f8             	mov    %r15,%rax
    40ec:	4c 89 6c 24 50       	mov    %r13,0x50(%rsp)
    40f1:	48 01 d8             	add    %rbx,%rax
    40f4:	74 09                	je     40ff <_ZN10arg_parser8parseStrENSt7__cxx1112basic_stringIcSt11char_traitsIcESaIcEEEbSt8functionIFvRS5_EE+0x4f>
    40f6:	4d 85 ff             	test   %r15,%r15
    40f9:	0f 84 2a 01 00 00    	je     4229 <_ZN10arg_parser8parseStrENSt7__cxx1112basic_stringIcSt11char_traitsIcESaIcEEEbSt8functionIFvRS5_EE+0x179>
    40ff:	48 83 fb 0f          	cmp    $0xf,%rbx
    4103:	0f 87 d7 00 00 00    	ja     41e0 <_ZN10arg_parser8parseStrENSt7__cxx1112basic_stringIcSt11char_traitsIcESaIcEEEbSt8functionIFvRS5_EE+0x130>
    4109:	48 83 fb 01          	cmp    $0x1,%rbx
    410d:	0f 84 ad 00 00 00    	je     41c0 <_ZN10arg_parser8parseStrENSt7__cxx1112basic_stringIcSt11char_traitsIcESaIcEEEbSt8functionIFvRS5_EE+0x110>
    4113:	4c 89 e8             	mov    %r13,%rax
    4116:	48 85 db             	test   %rbx,%rbx
    4119:	0f 85 21 01 00 00    	jne    4240 <_ZN10arg_parser8parseStrENSt7__cxx1112basic_stringIcSt11char_traitsIcESaIcEEEbSt8functionIFvRS5_EE+0x190>
    411f:	48 89 5c 24 58       	mov    %rbx,0x58(%rsp)
    4124:	4c 8d 7c 24 10       	lea    0x10(%rsp),%r15
    4129:	4c 89 c6             	mov    %r8,%rsi
    412c:	c6 04 18 00          	movb   $0x0,(%rax,%rbx,1)
    4130:	48 8d 5c 24 50       	lea    0x50(%rsp),%rbx
    4135:	4c 89 ff             	mov    %r15,%rdi
    4138:	48 89 da             	mov    %rbx,%rdx
    413b:	e8 b0 f3 ff ff       	call   34f0 <_ZN10arg_parser7findArgENSt7__cxx1112basic_stringIcSt11char_traitsIcESaIcEEE>
    4140:	48 8b 7c 24 50       	mov    0x50(%rsp),%rdi
    4145:	4c 39 ef             	cmp    %r13,%rdi
    4148:	74 0e                	je     4158 <_ZN10arg_parser8parseStrENSt7__cxx1112basic_stringIcSt11char_traitsIcESaIcEEEbSt8functionIFvRS5_EE+0xa8>
    414a:	48 8b 44 24 60       	mov    0x60(%rsp),%rax
    414f:	48 8d 70 01          	lea    0x1(%rax),%rsi
    4153:	e8 88 e0 ff ff       	call   21e0 <_ZdlPvm@plt>
    4158:	48 83 7c 24 18 00    	cmpq   $0x0,0x18(%rsp)
    415e:	74 70                	je     41d0 <_ZN10arg_parser8parseStrENSt7__cxx1112basic_stringIcSt11char_traitsIcESaIcEEEbSt8functionIFvRS5_EE+0x120>
    4160:	48 83 7d 10 00       	cmpq   $0x0,0x10(%rbp)
    4165:	0f 84 df 00 00 00    	je     424a <_ZN10arg_parser8parseStrENSt7__cxx1112basic_stringIcSt11char_traitsIcESaIcEEEbSt8functionIFvRS5_EE+0x19a>
    416b:	4c 89 fe             	mov    %r15,%rsi
    416e:	48 89 ef             	mov    %rbp,%rdi
    4171:	ff 55 18             	call   *0x18(%rbp)
    4174:	48 8b 7c 24 10       	mov    0x10(%rsp),%rdi
    4179:	48 8d 44 24 20       	lea    0x20(%rsp),%rax
    417e:	48 39 c7             	cmp    %rax,%rdi
    4181:	74 0e                	je     4191 <_ZN10arg_parser8parseStrENSt7__cxx1112basic_stringIcSt11char_traitsIcESaIcEEEbSt8functionIFvRS5_EE+0xe1>
    4183:	48 8b 44 24 20       	mov    0x20(%rsp),%rax
    4188:	48 8d 70 01          	lea    0x1(%rax),%rsi
    418c:	e8 4f e0 ff ff       	call   21e0 <_ZdlPvm@plt>
    4191:	48 8b 44 24 78       	mov    0x78(%rsp),%rax
    4196:	64 48 2b 04 25 28 00 	sub    %fs:0x28,%rax
    419d:	00 00 
    419f:	0f 85 a0 00 00 00    	jne    4245 <_ZN10arg_parser8parseStrENSt7__cxx1112basic_stringIcSt11char_traitsIcESaIcEEEbSt8functionIFvRS5_EE+0x195>
    41a5:	48 81 c4 88 00 00 00 	add    $0x88,%rsp
    41ac:	5b                   	pop    %rbx
    41ad:	5d                   	pop    %rbp
    41ae:	41 5c                	pop    %r12
    41b0:	41 5d                	pop    %r13
    41b2:	41 5e                	pop    %r14
    41b4:	41 5f                	pop    %r15
    41b6:	c3                   	ret    
    41b7:	66 0f 1f 84 00 00 00 	nopw   0x0(%rax,%rax,1)
    41be:	00 00 
    41c0:	41 0f b6 07          	movzbl (%r15),%eax
    41c4:	88 44 24 60          	mov    %al,0x60(%rsp)
    41c8:	4c 89 e8             	mov    %r13,%rax
    41cb:	e9 4f ff ff ff       	jmp    411f <_ZN10arg_parser8parseStrENSt7__cxx1112basic_stringIcSt11char_traitsIcESaIcEEEbSt8functionIFvRS5_EE+0x6f>
    41d0:	45 84 f6             	test   %r14b,%r14b
    41d3:	74 9f                	je     4174 <_ZN10arg_parser8parseStrENSt7__cxx1112basic_stringIcSt11char_traitsIcESaIcEEEbSt8functionIFvRS5_EE+0xc4>
    41d5:	e9 a0 e7 ff ff       	jmp    297a <_ZN10arg_parser8parseStrENSt7__cxx1112basic_stringIcSt11char_traitsIcESaIcEEEbSt8functionIFvRS5_EE.cold>
    41da:	66 0f 1f 44 00 00    	nopw   0x0(%rax,%rax,1)
    41e0:	48 85 db             	test   %rbx,%rbx
    41e3:	78 6a                	js     424f <_ZN10arg_parser8parseStrENSt7__cxx1112basic_stringIcSt11char_traitsIcESaIcEEEbSt8functionIFvRS5_EE+0x19f>
    41e5:	48 89 df             	mov    %rbx,%rdi
    41e8:	48 83 c7 01          	add    $0x1,%rdi
    41ec:	78 4a                	js     4238 <_ZN10arg_parser8parseStrENSt7__cxx1112basic_stringIcSt11char_traitsIcESaIcEEEbSt8functionIFvRS5_EE+0x188>
    41ee:	4c 89 44 24 08       	mov    %r8,0x8(%rsp)
    41f3:	e8 d8 df ff ff       	call   21d0 <_Znwm@plt>
    41f8:	48 89 5c 24 60       	mov    %rbx,0x60(%rsp)
    41fd:	4c 8b 44 24 08       	mov    0x8(%rsp),%r8
    4202:	48 89 44 24 50       	mov    %rax,0x50(%rsp)
    4207:	48 89 c7             	mov    %rax,%rdi
    420a:	48 89 da             	mov    %rbx,%rdx
    420d:	4c 89 fe             	mov    %r15,%rsi
    4210:	4c 89 44 24 08       	mov    %r8,0x8(%rsp)
    4215:	e8 86 df ff ff       	call   21a0 <memcpy@plt>
    421a:	48 8b 44 24 50       	mov    0x50(%rsp),%rax
    421f:	4c 8b 44 24 08       	mov    0x8(%rsp),%r8
    4224:	e9 f6 fe ff ff       	jmp    411f <_ZN10arg_parser8parseStrENSt7__cxx1112basic_stringIcSt11char_traitsIcESaIcEEEbSt8functionIFvRS5_EE+0x6f>
    4229:	48 8d 3d e8 9d 02 00 	lea    0x29de8(%rip),%rdi        # 2e018 <_IO_stdin_used+0x18>
    4230:	e8 3b df ff ff       	call   2170 <_ZSt19__throw_logic_errorPKc@plt>
    4235:	0f 1f 00             	nopl   (%rax)
    4238:	e8 33 de ff ff       	call   2070 <_ZSt17__throw_bad_allocv@plt>
    423d:	0f 1f 00             	nopl   (%rax)
    4240:	4c 89 ef             	mov    %r13,%rdi
    4243:	eb c5                	jmp    420a <_ZN10arg_parser8parseStrENSt7__cxx1112basic_stringIcSt11char_traitsIcESaIcEEEbSt8functionIFvRS5_EE+0x15a>
    4245:	e8 c6 df ff ff       	call   2210 <__stack_chk_fail@plt>
    424a:	e8 31 de ff ff       	call   2080 <_ZSt25__throw_bad_function_callv@plt>
    424f:	48 8d 3d ec 9d 02 00 	lea    0x29dec(%rip),%rdi        # 2e042 <_IO_stdin_used+0x42>
    4256:	e8 85 de ff ff       	call   20e0 <_ZSt20__throw_length_errorPKc@plt>
    425b:	48 89 c5             	mov    %rax,%rbp
    425e:	e9 a3 e7 ff ff       	jmp    2a06 <_ZN10arg_parser8parseStrENSt7__cxx1112basic_stringIcSt11char_traitsIcESaIcEEEbSt8functionIFvRS5_EE.cold+0x8c>
    4263:	e9 be e7 ff ff       	jmp    2a26 <_ZN10arg_parser8parseStrENSt7__cxx1112basic_stringIcSt11char_traitsIcESaIcEEEbSt8functionIFvRS5_EE.cold+0xac>
    4268:	0f 1f 84 00 00 00 00 	nopl   0x0(%rax,%rax,1)
    426f:	00 

0000000000004270 <_ZN10arg_parser10parseFloatENSt7__cxx1112basic_stringIcSt11char_traitsIcESaIcEEEbSt8functionIFvfEE>:
    4270:	41 57                	push   %r15
    4272:	49 89 ff             	mov    %rdi,%r15
    4275:	41 56                	push   %r14
    4277:	41 55                	push   %r13
    4279:	41 54                	push   %r12
    427b:	49 89 f4             	mov    %rsi,%r12
    427e:	55                   	push   %rbp
    427f:	48 89 cd             	mov    %rcx,%rbp
    4282:	53                   	push   %rbx
    4283:	48 83 ec 78          	sub    $0x78,%rsp
    4287:	48 8b 36             	mov    (%rsi),%rsi
    428a:	89 54 24 0c          	mov    %edx,0xc(%rsp)
    428e:	49 8b 54 24 08       	mov    0x8(%r12),%rdx
    4293:	4c 8d 6c 24 20       	lea    0x20(%rsp),%r13
    4298:	4c 8d 74 24 30       	lea    0x30(%rsp),%r14
    429d:	4c 89 ef             	mov    %r13,%rdi
    42a0:	48 01 f2             	add    %rsi,%rdx
    42a3:	64 48 8b 04 25 28 00 	mov    %fs:0x28,%rax
    42aa:	00 00 
    42ac:	48 89 44 24 68       	mov    %rax,0x68(%rsp)
    42b1:	31 c0                	xor    %eax,%eax
    42b3:	4c 89 74 24 20       	mov    %r14,0x20(%rsp)
    42b8:	e8 63 f1 ff ff       	call   3420 <_ZNSt7__cxx1112basic_stringIcSt11char_traitsIcESaIcEE12_M_constructIPcEEvT_S7_St20forward_iterator_tag.isra.0>
    42bd:	48 8d 7c 24 40       	lea    0x40(%rsp),%rdi
    42c2:	4c 89 ea             	mov    %r13,%rdx
    42c5:	4c 89 fe             	mov    %r15,%rsi
    42c8:	e8 23 f2 ff ff       	call   34f0 <_ZN10arg_parser7findArgENSt7__cxx1112basic_stringIcSt11char_traitsIcESaIcEEE>
    42cd:	e8 7e dd ff ff       	call   2050 <__errno_location@plt>
    42d2:	4c 8b 7c 24 40       	mov    0x40(%rsp),%r15
    42d7:	48 8d 74 24 18       	lea    0x18(%rsp),%rsi
    42dc:	48 89 c3             	mov    %rax,%rbx
    42df:	8b 00                	mov    (%rax),%eax
    42e1:	48 89 34 24          	mov    %rsi,(%rsp)
    42e5:	c7 03 00 00 00 00    	movl   $0x0,(%rbx)
    42eb:	4c 89 ff             	mov    %r15,%rdi
    42ee:	89 44 24 08          	mov    %eax,0x8(%rsp)
    42f2:	e8 a9 df ff ff       	call   22a0 <strtof@plt>
    42f7:	4c 3b 7c 24 18       	cmp    0x18(%rsp),%r15
    42fc:	48 8b 34 24          	mov    (%rsp),%rsi
    4300:	0f 84 8e 00 00 00    	je     4394 <_ZN10arg_parser10parseFloatENSt7__cxx1112basic_stringIcSt11char_traitsIcESaIcEEEbSt8functionIFvfEE+0x124>
    4306:	8b 03                	mov    (%rbx),%eax
    4308:	83 f8 22             	cmp    $0x22,%eax
    430b:	74 7b                	je     4388 <_ZN10arg_parser10parseFloatENSt7__cxx1112basic_stringIcSt11char_traitsIcESaIcEEEbSt8functionIFvfEE+0x118>
    430d:	85 c0                	test   %eax,%eax
    430f:	74 6f                	je     4380 <_ZN10arg_parser10parseFloatENSt7__cxx1112basic_stringIcSt11char_traitsIcESaIcEEEbSt8functionIFvfEE+0x110>
    4311:	48 83 7d 10 00       	cmpq   $0x0,0x10(%rbp)
    4316:	f3 0f 11 44 24 18    	movss  %xmm0,0x18(%rsp)
    431c:	0f 84 83 00 00 00    	je     43a5 <_ZN10arg_parser10parseFloatENSt7__cxx1112basic_stringIcSt11char_traitsIcESaIcEEEbSt8functionIFvfEE+0x135>
    4322:	48 89 ef             	mov    %rbp,%rdi
    4325:	ff 55 18             	call   *0x18(%rbp)
    4328:	48 8b 7c 24 40       	mov    0x40(%rsp),%rdi
    432d:	48 8d 44 24 50       	lea    0x50(%rsp),%rax
    4332:	48 39 c7             	cmp    %rax,%rdi
    4335:	74 0e                	je     4345 <_ZN10arg_parser10parseFloatENSt7__cxx1112basic_stringIcSt11char_traitsIcESaIcEEEbSt8functionIFvfEE+0xd5>
    4337:	48 8b 44 24 50       	mov    0x50(%rsp),%rax
    433c:	48 8d 70 01          	lea    0x1(%rax),%rsi
    4340:	e8 9b de ff ff       	call   21e0 <_ZdlPvm@plt>
    4345:	48 8b 7c 24 20       	mov    0x20(%rsp),%rdi
    434a:	4c 39 f7             	cmp    %r14,%rdi
    434d:	74 0e                	je     435d <_ZN10arg_parser10parseFloatENSt7__cxx1112basic_stringIcSt11char_traitsIcESaIcEEEbSt8functionIFvfEE+0xed>
    434f:	48 8b 44 24 30       	mov    0x30(%rsp),%rax
    4354:	48 8d 70 01          	lea    0x1(%rax),%rsi
    4358:	e8 83 de ff ff       	call   21e0 <_ZdlPvm@plt>
    435d:	48 8b 44 24 68       	mov    0x68(%rsp),%rax
    4362:	64 48 2b 04 25 28 00 	sub    %fs:0x28,%rax
    4369:	00 00 
    436b:	75 33                	jne    43a0 <_ZN10arg_parser10parseFloatENSt7__cxx1112basic_stringIcSt11char_traitsIcESaIcEEEbSt8functionIFvfEE+0x130>
    436d:	48 83 c4 78          	add    $0x78,%rsp
    4371:	5b                   	pop    %rbx
    4372:	5d                   	pop    %rbp
    4373:	41 5c                	pop    %r12
    4375:	41 5d                	pop    %r13
    4377:	41 5e                	pop    %r14
    4379:	41 5f                	pop    %r15
    437b:	c3                   	ret    
    437c:	0f 1f 40 00          	nopl   0x0(%rax)
    4380:	8b 44 24 08          	mov    0x8(%rsp),%eax
    4384:	89 03                	mov    %eax,(%rbx)
    4386:	eb 89                	jmp    4311 <_ZN10arg_parser10parseFloatENSt7__cxx1112basic_stringIcSt11char_traitsIcESaIcEEEbSt8functionIFvfEE+0xa1>
    4388:	48 8d 3d cb 9c 02 00 	lea    0x29ccb(%rip),%rdi        # 2e05a <_IO_stdin_used+0x5a>
    438f:	e8 6c df ff ff       	call   2300 <_ZSt20__throw_out_of_rangePKc@plt>
    4394:	48 8d 3d bf 9c 02 00 	lea    0x29cbf(%rip),%rdi        # 2e05a <_IO_stdin_used+0x5a>
    439b:	e8 80 dd ff ff       	call   2120 <_ZSt24__throw_invalid_argumentPKc@plt>
    43a0:	e8 6b de ff ff       	call   2210 <__stack_chk_fail@plt>
    43a5:	e8 d6 dc ff ff       	call   2080 <_ZSt25__throw_bad_function_callv@plt>
    43aa:	48 89 c3             	mov    %rax,%rbx
    43ad:	48 89 d5             	mov    %rdx,%rbp
    43b0:	e9 0c e7 ff ff       	jmp    2ac1 <_ZN10arg_parser10parseFloatENSt7__cxx1112basic_stringIcSt11char_traitsIcESaIcEEEbSt8functionIFvfEE.cold+0x29>
    43b5:	48 89 c7             	mov    %rax,%rdi
    43b8:	48 89 d5             	mov    %rdx,%rbp
    43bb:	e9 1c e7 ff ff       	jmp    2adc <_ZN10arg_parser10parseFloatENSt7__cxx1112basic_stringIcSt11char_traitsIcESaIcEEEbSt8functionIFvfEE.cold+0x44>
    43c0:	48 89 c3             	mov    %rax,%rbx
    43c3:	48 89 d5             	mov    %rdx,%rbp
    43c6:	e9 d9 e6 ff ff       	jmp    2aa4 <_ZN10arg_parser10parseFloatENSt7__cxx1112basic_stringIcSt11char_traitsIcESaIcEEEbSt8functionIFvfEE.cold+0xc>
    43cb:	48 89 d5             	mov    %rdx,%rbp
    43ce:	e9 c5 e6 ff ff       	jmp    2a98 <_ZN10arg_parser10parseFloatENSt7__cxx1112basic_stringIcSt11char_traitsIcESaIcEEEbSt8functionIFvfEE.cold>
    43d3:	90                   	nop
    43d4:	66 66 2e 0f 1f 84 00 	data16 cs nopw 0x0(%rax,%rax,1)
    43db:	00 00 00 00 
    43df:	90                   	nop

00000000000043e0 <_ZN10arg_parser8parseIntENSt7__cxx1112basic_stringIcSt11char_traitsIcESaIcEEEbSt8functionIFviEE>:
    43e0:	41 57                	push   %r15
    43e2:	49 89 ff             	mov    %rdi,%r15
    43e5:	41 56                	push   %r14
    43e7:	41 55                	push   %r13
    43e9:	41 54                	push   %r12
    43eb:	49 89 f4             	mov    %rsi,%r12
    43ee:	55                   	push   %rbp
    43ef:	48 89 cd             	mov    %rcx,%rbp
    43f2:	53                   	push   %rbx
    43f3:	48 83 ec 78          	sub    $0x78,%rsp
    43f7:	48 8b 36             	mov    (%rsi),%rsi
    43fa:	89 54 24 0c          	mov    %edx,0xc(%rsp)
    43fe:	49 8b 54 24 08       	mov    0x8(%r12),%rdx
    4403:	4c 8d 6c 24 20       	lea    0x20(%rsp),%r13
    4408:	4c 8d 74 24 30       	lea    0x30(%rsp),%r14
    440d:	4c 89 ef             	mov    %r13,%rdi
    4410:	48 01 f2             	add    %rsi,%rdx
    4413:	64 48 8b 04 25 28 00 	mov    %fs:0x28,%rax
    441a:	00 00 
    441c:	48 89 44 24 68       	mov    %rax,0x68(%rsp)
    4421:	31 c0                	xor    %eax,%eax
    4423:	4c 89 74 24 20       	mov    %r14,0x20(%rsp)
    4428:	e8 f3 ef ff ff       	call   3420 <_ZNSt7__cxx1112basic_stringIcSt11char_traitsIcESaIcEE12_M_constructIPcEEvT_S7_St20forward_iterator_tag.isra.0>
    442d:	48 8d 7c 24 40       	lea    0x40(%rsp),%rdi
    4432:	4c 89 ea             	mov    %r13,%rdx
    4435:	4c 89 fe             	mov    %r15,%rsi
    4438:	e8 b3 f0 ff ff       	call   34f0 <_ZN10arg_parser7findArgENSt7__cxx1112basic_stringIcSt11char_traitsIcESaIcEEE>
    443d:	e8 0e dc ff ff       	call   2050 <__errno_location@plt>
    4442:	4c 8b 7c 24 40       	mov    0x40(%rsp),%r15
    4447:	48 8d 74 24 18       	lea    0x18(%rsp),%rsi
    444c:	ba 0a 00 00 00       	mov    $0xa,%edx
    4451:	48 89 c3             	mov    %rax,%rbx
    4454:	8b 00                	mov    (%rax),%eax
    4456:	48 89 34 24          	mov    %rsi,(%rsp)
    445a:	c7 03 00 00 00 00    	movl   $0x0,(%rbx)
    4460:	4c 89 ff             	mov    %r15,%rdi
    4463:	89 44 24 08          	mov    %eax,0x8(%rsp)
    4467:	e8 74 de ff ff       	call   22e0 <strtol@plt>
    446c:	4c 3b 7c 24 18       	cmp    0x18(%rsp),%r15
    4471:	48 8b 34 24          	mov    (%rsp),%rsi
    4475:	0f 84 a1 00 00 00    	je     451c <_ZN10arg_parser8parseIntENSt7__cxx1112basic_stringIcSt11char_traitsIcESaIcEEEbSt8functionIFviEE+0x13c>
    447b:	8b 0b                	mov    (%rbx),%ecx
    447d:	83 f9 22             	cmp    $0x22,%ecx
    4480:	0f 84 8a 00 00 00    	je     4510 <_ZN10arg_parser8parseIntENSt7__cxx1112basic_stringIcSt11char_traitsIcESaIcEEEbSt8functionIFviEE+0x130>
    4486:	ba 00 00 00 80       	mov    $0x80000000,%edx
    448b:	48 01 c2             	add    %rax,%rdx
    448e:	48 c1 ea 20          	shr    $0x20,%rdx
    4492:	75 7c                	jne    4510 <_ZN10arg_parser8parseIntENSt7__cxx1112basic_stringIcSt11char_traitsIcESaIcEEEbSt8functionIFviEE+0x130>
    4494:	85 c9                	test   %ecx,%ecx
    4496:	74 70                	je     4508 <_ZN10arg_parser8parseIntENSt7__cxx1112basic_stringIcSt11char_traitsIcESaIcEEEbSt8functionIFviEE+0x128>
    4498:	48 83 7d 10 00       	cmpq   $0x0,0x10(%rbp)
    449d:	89 44 24 18          	mov    %eax,0x18(%rsp)
    44a1:	0f 84 86 00 00 00    	je     452d <_ZN10arg_parser8parseIntENSt7__cxx1112basic_stringIcSt11char_traitsIcESaIcEEEbSt8functionIFviEE+0x14d>
    44a7:	48 89 ef             	mov    %rbp,%rdi
    44aa:	ff 55 18             	call   *0x18(%rbp)
    44ad:	48 8b 7c 24 40       	mov    0x40(%rsp),%rdi
    44b2:	48 8d 44 24 50       	lea    0x50(%rsp),%rax
    44b7:	48 39 c7             	cmp    %rax,%rdi
    44ba:	74 0e                	je     44ca <_ZN10arg_parser8parseIntENSt7__cxx1112basic_stringIcSt11char_traitsIcESaIcEEEbSt8functionIFviEE+0xea>
    44bc:	48 8b 44 24 50       	mov    0x50(%rsp),%rax
    44c1:	48 8d 70 01          	lea    0x1(%rax),%rsi
    44c5:	e8 16 dd ff ff       	call   21e0 <_ZdlPvm@plt>
    44ca:	48 8b 7c 24 20       	mov    0x20(%rsp),%rdi
    44cf:	4c 39 f7             	cmp    %r14,%rdi
    44d2:	74 0e                	je     44e2 <_ZN10arg_parser8parseIntENSt7__cxx1112basic_stringIcSt11char_traitsIcESaIcEEEbSt8functionIFviEE+0x102>
    44d4:	48 8b 44 24 30       	mov    0x30(%rsp),%rax
    44d9:	48 8d 70 01          	lea    0x1(%rax),%rsi
    44dd:	e8 fe dc ff ff       	call   21e0 <_ZdlPvm@plt>
    44e2:	48 8b 44 24 68       	mov    0x68(%rsp),%rax
    44e7:	64 48 2b 04 25 28 00 	sub    %fs:0x28,%rax
    44ee:	00 00 
    44f0:	75 36                	jne    4528 <_ZN10arg_parser8parseIntENSt7__cxx1112basic_stringIcSt11char_traitsIcESaIcEEEbSt8functionIFviEE+0x148>
    44f2:	48 83 c4 78          	add    $0x78,%rsp
    44f6:	5b                   	pop    %rbx
    44f7:	5d                   	pop    %rbp
    44f8:	41 5c                	pop    %r12
    44fa:	41 5d                	pop    %r13
    44fc:	41 5e                	pop    %r14
    44fe:	41 5f                	pop    %r15
    4500:	c3                   	ret    
    4501:	0f 1f 80 00 00 00 00 	nopl   0x0(%rax)
    4508:	8b 4c 24 08          	mov    0x8(%rsp),%ecx
    450c:	89 0b                	mov    %ecx,(%rbx)
    450e:	eb 88                	jmp    4498 <_ZN10arg_parser8parseIntENSt7__cxx1112basic_stringIcSt11char_traitsIcESaIcEEEbSt8functionIFviEE+0xb8>
    4510:	48 8d 3d 6b 9b 02 00 	lea    0x29b6b(%rip),%rdi        # 2e082 <_IO_stdin_used+0x82>
    4517:	e8 e4 dd ff ff       	call   2300 <_ZSt20__throw_out_of_rangePKc@plt>
    451c:	48 8d 3d 5f 9b 02 00 	lea    0x29b5f(%rip),%rdi        # 2e082 <_IO_stdin_used+0x82>
    4523:	e8 f8 db ff ff       	call   2120 <_ZSt24__throw_invalid_argumentPKc@plt>
    4528:	e8 e3 dc ff ff       	call   2210 <__stack_chk_fail@plt>
    452d:	e8 4e db ff ff       	call   2080 <_ZSt25__throw_bad_function_callv@plt>
    4532:	48 89 c3             	mov    %rax,%rbx
    4535:	48 89 d5             	mov    %rdx,%rbp
    4538:	e9 e6 e6 ff ff       	jmp    2c23 <_ZN10arg_parser8parseIntENSt7__cxx1112basic_stringIcSt11char_traitsIcESaIcEEEbSt8functionIFviEE.cold+0x29>
    453d:	48 89 c7             	mov    %rax,%rdi
    4540:	48 89 d5             	mov    %rdx,%rbp
    4543:	e9 f6 e6 ff ff       	jmp    2c3e <_ZN10arg_parser8parseIntENSt7__cxx1112basic_stringIcSt11char_traitsIcESaIcEEEbSt8functionIFviEE.cold+0x44>
    4548:	48 89 c3             	mov    %rax,%rbx
    454b:	48 89 d5             	mov    %rdx,%rbp
    454e:	e9 b3 e6 ff ff       	jmp    2c06 <_ZN10arg_parser8parseIntENSt7__cxx1112basic_stringIcSt11char_traitsIcESaIcEEEbSt8functionIFviEE.cold+0xc>
    4553:	48 89 d5             	mov    %rdx,%rbp
    4556:	e9 9f e6 ff ff       	jmp    2bfa <_ZN10arg_parser8parseIntENSt7__cxx1112basic_stringIcSt11char_traitsIcESaIcEEEbSt8functionIFviEE.cold>
    455b:	90                   	nop
    455c:	0f 1f 40 00          	nopl   0x0(%rax)

0000000000004560 <_ZN10arg_parser9parseBoolENSt7__cxx1112basic_stringIcSt11char_traitsIcESaIcEEEbSt8functionIFvvEE>:
    4560:	41 57                	push   %r15
    4562:	41 56                	push   %r14
    4564:	41 55                	push   %r13
    4566:	41 89 d5             	mov    %edx,%r13d
    4569:	41 54                	push   %r12
    456b:	49 89 f4             	mov    %rsi,%r12
    456e:	55                   	push   %rbp
    456f:	48 89 fd             	mov    %rdi,%rbp
    4572:	53                   	push   %rbx
    4573:	48 89 cb             	mov    %rcx,%rbx
    4576:	48 81 ec 88 00 00 00 	sub    $0x88,%rsp
    457d:	48 8b 36             	mov    (%rsi),%rsi
    4580:	49 8b 54 24 08       	mov    0x8(%r12),%rdx
    4585:	64 48 8b 04 25 28 00 	mov    %fs:0x28,%rax
    458c:	00 00 
    458e:	48 89 44 24 78       	mov    %rax,0x78(%rsp)
    4593:	31 c0                	xor    %eax,%eax
    4595:	4c 8d 7c 24 50       	lea    0x50(%rsp),%r15
    459a:	4c 8d 74 24 60       	lea    0x60(%rsp),%r14
    459f:	48 01 f2             	add    %rsi,%rdx
    45a2:	4c 89 ff             	mov    %r15,%rdi
    45a5:	4c 89 74 24 50       	mov    %r14,0x50(%rsp)
    45aa:	e8 71 ee ff ff       	call   3420 <_ZNSt7__cxx1112basic_stringIcSt11char_traitsIcESaIcEE12_M_constructIPcEEvT_S7_St20forward_iterator_tag.isra.0>
    45af:	48 8d 7c 24 10       	lea    0x10(%rsp),%rdi
    45b4:	4c 89 fa             	mov    %r15,%rdx
    45b7:	48 89 ee             	mov    %rbp,%rsi
    45ba:	e8 31 ef ff ff       	call   34f0 <_ZN10arg_parser7findArgENSt7__cxx1112basic_stringIcSt11char_traitsIcESaIcEEE>
    45bf:	48 8b 7c 24 50       	mov    0x50(%rsp),%rdi
    45c4:	4c 39 f7             	cmp    %r14,%rdi
    45c7:	74 0e                	je     45d7 <_ZN10arg_parser9parseBoolENSt7__cxx1112basic_stringIcSt11char_traitsIcESaIcEEEbSt8functionIFvvEE+0x77>
    45c9:	48 8b 44 24 60       	mov    0x60(%rsp),%rax
    45ce:	48 8d 70 01          	lea    0x1(%rax),%rsi
    45d2:	e8 09 dc ff ff       	call   21e0 <_ZdlPvm@plt>
    45d7:	48 8b 6c 24 18       	mov    0x18(%rsp),%rbp
    45dc:	48 8b 7c 24 10       	mov    0x10(%rsp),%rdi
    45e1:	48 83 fd 04          	cmp    $0x4,%rbp
    45e5:	77 49                	ja     4630 <_ZN10arg_parser9parseBoolENSt7__cxx1112basic_stringIcSt11char_traitsIcESaIcEEEbSt8functionIFvvEE+0xd0>
    45e7:	48 85 ed             	test   %rbp,%rbp
    45ea:	75 64                	jne    4650 <_ZN10arg_parser9parseBoolENSt7__cxx1112basic_stringIcSt11char_traitsIcESaIcEEEbSt8functionIFvvEE+0xf0>
    45ec:	45 84 ed             	test   %r13b,%r13b
    45ef:	0f 85 67 e7 ff ff    	jne    2d5c <_ZN10arg_parser9parseBoolENSt7__cxx1112basic_stringIcSt11char_traitsIcESaIcEEEbSt8functionIFvvEE.cold>
    45f5:	48 8d 44 24 20       	lea    0x20(%rsp),%rax
    45fa:	48 39 c7             	cmp    %rax,%rdi
    45fd:	74 0e                	je     460d <_ZN10arg_parser9parseBoolENSt7__cxx1112basic_stringIcSt11char_traitsIcESaIcEEEbSt8functionIFvvEE+0xad>
    45ff:	48 8b 44 24 20       	mov    0x20(%rsp),%rax
    4604:	48 8d 70 01          	lea    0x1(%rax),%rsi
    4608:	e8 d3 db ff ff       	call   21e0 <_ZdlPvm@plt>
    460d:	48 8b 44 24 78       	mov    0x78(%rsp),%rax
    4612:	64 48 2b 04 25 28 00 	sub    %fs:0x28,%rax
    4619:	00 00 
    461b:	75 77                	jne    4694 <_ZN10arg_parser9parseBoolENSt7__cxx1112basic_stringIcSt11char_traitsIcESaIcEEEbSt8functionIFvvEE+0x134>
    461d:	48 81 c4 88 00 00 00 	add    $0x88,%rsp
    4624:	5b                   	pop    %rbx
    4625:	5d                   	pop    %rbp
    4626:	41 5c                	pop    %r12
    4628:	41 5d                	pop    %r13
    462a:	41 5e                	pop    %r14
    462c:	41 5f                	pop    %r15
    462e:	c3                   	ret    
    462f:	90                   	nop
    4630:	81 3f 74 72 75 65    	cmpl   $0x65757274,(%rdi)
    4636:	75 b4                	jne    45ec <_ZN10arg_parser9parseBoolENSt7__cxx1112basic_stringIcSt11char_traitsIcESaIcEEEbSt8functionIFvvEE+0x8c>
    4638:	48 83 ed 04          	sub    $0x4,%rbp
    463c:	48 81 fd ff ff ff 7f 	cmp    $0x7fffffff,%rbp
    4643:	7f a7                	jg     45ec <_ZN10arg_parser9parseBoolENSt7__cxx1112basic_stringIcSt11char_traitsIcESaIcEEEbSt8functionIFvvEE+0x8c>
    4645:	48 81 fd 00 00 00 80 	cmp    $0xffffffff80000000,%rbp
    464c:	7c 9e                	jl     45ec <_ZN10arg_parser9parseBoolENSt7__cxx1112basic_stringIcSt11char_traitsIcESaIcEEEbSt8functionIFvvEE+0x8c>
    464e:	eb 25                	jmp    4675 <_ZN10arg_parser9parseBoolENSt7__cxx1112basic_stringIcSt11char_traitsIcESaIcEEEbSt8functionIFvvEE+0x115>
    4650:	48 89 ea             	mov    %rbp,%rdx
    4653:	48 8d 35 33 9a 02 00 	lea    0x29a33(%rip),%rsi        # 2e08d <_IO_stdin_used+0x8d>
    465a:	48 89 7c 24 08       	mov    %rdi,0x8(%rsp)
    465f:	e8 5c da ff ff       	call   20c0 <memcmp@plt>
    4664:	48 8b 7c 24 08       	mov    0x8(%rsp),%rdi
    4669:	85 c0                	test   %eax,%eax
    466b:	0f 85 7b ff ff ff    	jne    45ec <_ZN10arg_parser9parseBoolENSt7__cxx1112basic_stringIcSt11char_traitsIcESaIcEEEbSt8functionIFvvEE+0x8c>
    4671:	48 83 ed 04          	sub    $0x4,%rbp
    4675:	85 ed                	test   %ebp,%ebp
    4677:	0f 85 6f ff ff ff    	jne    45ec <_ZN10arg_parser9parseBoolENSt7__cxx1112basic_stringIcSt11char_traitsIcESaIcEEEbSt8functionIFvvEE+0x8c>
    467d:	48 83 7b 10 00       	cmpq   $0x0,0x10(%rbx)
    4682:	74 15                	je     4699 <_ZN10arg_parser9parseBoolENSt7__cxx1112basic_stringIcSt11char_traitsIcESaIcEEEbSt8functionIFvvEE+0x139>
    4684:	48 89 df             	mov    %rbx,%rdi
    4687:	ff 53 18             	call   *0x18(%rbx)
    468a:	48 8b 7c 24 10       	mov    0x10(%rsp),%rdi
    468f:	e9 61 ff ff ff       	jmp    45f5 <_ZN10arg_parser9parseBoolENSt7__cxx1112basic_stringIcSt11char_traitsIcESaIcEEEbSt8functionIFvvEE+0x95>
    4694:	e8 77 db ff ff       	call   2210 <__stack_chk_fail@plt>
    4699:	e8 e2 d9 ff ff       	call   2080 <_ZSt25__throw_bad_function_callv@plt>
    469e:	48 89 c5             	mov    %rax,%rbp
    46a1:	e9 42 e7 ff ff       	jmp    2de8 <_ZN10arg_parser9parseBoolENSt7__cxx1112basic_stringIcSt11char_traitsIcESaIcEEEbSt8functionIFvvEE.cold+0x8c>
    46a6:	e9 5d e7 ff ff       	jmp    2e08 <_ZN10arg_parser9parseBoolENSt7__cxx1112basic_stringIcSt11char_traitsIcESaIcEEEbSt8functionIFvvEE.cold+0xac>
    46ab:	0f 1f 44 00 00       	nopl   0x0(%rax,%rax,1)

00000000000046b0 <_ZNSt7__cxx1112basic_stringIcSt11char_traitsIcESaIcEE9_M_mutateEmmPKcm>:
    46b0:	41 57                	push   %r15
    46b2:	41 56                	push   %r14
    46b4:	4d 89 c6             	mov    %r8,%r14
    46b7:	41 55                	push   %r13
    46b9:	41 54                	push   %r12
    46bb:	49 89 f4             	mov    %rsi,%r12
    46be:	48 01 d6             	add    %rdx,%rsi
    46c1:	55                   	push   %rbp
    46c2:	4c 89 c5             	mov    %r8,%rbp
    46c5:	53                   	push   %rbx
    46c6:	48 89 fb             	mov    %rdi,%rbx
    46c9:	48 29 d5             	sub    %rdx,%rbp
    46cc:	4c 8d 6b 10          	lea    0x10(%rbx),%r13
    46d0:	48 83 ec 28          	sub    $0x28,%rsp
    46d4:	48 8b 47 08          	mov    0x8(%rdi),%rax
    46d8:	48 89 74 24 10       	mov    %rsi,0x10(%rsp)
    46dd:	48 89 c7             	mov    %rax,%rdi
    46e0:	48 01 c5             	add    %rax,%rbp
    46e3:	48 29 f7             	sub    %rsi,%rdi
    46e6:	48 89 3c 24          	mov    %rdi,(%rsp)
    46ea:	4c 3b 2b             	cmp    (%rbx),%r13
    46ed:	0f 84 15 01 00 00    	je     4808 <_ZNSt7__cxx1112basic_stringIcSt11char_traitsIcESaIcEE9_M_mutateEmmPKcm+0x158>
    46f3:	48 8b 43 10          	mov    0x10(%rbx),%rax
    46f7:	48 85 ed             	test   %rbp,%rbp
    46fa:	0f 88 4c 01 00 00    	js     484c <_ZNSt7__cxx1112basic_stringIcSt11char_traitsIcESaIcEE9_M_mutateEmmPKcm+0x19c>
    4700:	48 39 c5             	cmp    %rax,%rbp
    4703:	76 1b                	jbe    4720 <_ZNSt7__cxx1112basic_stringIcSt11char_traitsIcESaIcEE9_M_mutateEmmPKcm+0x70>
    4705:	48 01 c0             	add    %rax,%rax
    4708:	48 39 c5             	cmp    %rax,%rbp
    470b:	73 13                	jae    4720 <_ZNSt7__cxx1112basic_stringIcSt11char_traitsIcESaIcEE9_M_mutateEmmPKcm+0x70>
    470d:	48 85 c0             	test   %rax,%rax
    4710:	0f 88 ea 00 00 00    	js     4800 <_ZNSt7__cxx1112basic_stringIcSt11char_traitsIcESaIcEE9_M_mutateEmmPKcm+0x150>
    4716:	48 89 c5             	mov    %rax,%rbp
    4719:	0f 1f 80 00 00 00 00 	nopl   0x0(%rax)
    4720:	48 89 ef             	mov    %rbp,%rdi
    4723:	48 83 c7 01          	add    $0x1,%rdi
    4727:	0f 88 d3 00 00 00    	js     4800 <_ZNSt7__cxx1112basic_stringIcSt11char_traitsIcESaIcEE9_M_mutateEmmPKcm+0x150>
    472d:	48 89 4c 24 08       	mov    %rcx,0x8(%rsp)
    4732:	e8 99 da ff ff       	call   21d0 <_Znwm@plt>
    4737:	4d 85 e4             	test   %r12,%r12
    473a:	4c 8b 0b             	mov    (%rbx),%r9
    473d:	48 8b 4c 24 08       	mov    0x8(%rsp),%rcx
    4742:	49 89 c7             	mov    %rax,%r15
    4745:	74 2c                	je     4773 <_ZNSt7__cxx1112basic_stringIcSt11char_traitsIcESaIcEE9_M_mutateEmmPKcm+0xc3>
    4747:	49 83 fc 01          	cmp    $0x1,%r12
    474b:	0f 84 c7 00 00 00    	je     4818 <_ZNSt7__cxx1112basic_stringIcSt11char_traitsIcESaIcEE9_M_mutateEmmPKcm+0x168>
    4751:	4c 89 ce             	mov    %r9,%rsi
    4754:	4c 89 e2             	mov    %r12,%rdx
    4757:	48 89 c7             	mov    %rax,%rdi
    475a:	48 89 4c 24 18       	mov    %rcx,0x18(%rsp)
    475f:	4c 89 4c 24 08       	mov    %r9,0x8(%rsp)
    4764:	e8 37 da ff ff       	call   21a0 <memcpy@plt>
    4769:	48 8b 4c 24 18       	mov    0x18(%rsp),%rcx
    476e:	4c 8b 4c 24 08       	mov    0x8(%rsp),%r9
    4773:	48 85 c9             	test   %rcx,%rcx
    4776:	74 28                	je     47a0 <_ZNSt7__cxx1112basic_stringIcSt11char_traitsIcESaIcEE9_M_mutateEmmPKcm+0xf0>
    4778:	4d 85 f6             	test   %r14,%r14
    477b:	74 23                	je     47a0 <_ZNSt7__cxx1112basic_stringIcSt11char_traitsIcESaIcEE9_M_mutateEmmPKcm+0xf0>
    477d:	4b 8d 3c 27          	lea    (%r15,%r12,1),%rdi
    4781:	49 83 fe 01          	cmp    $0x1,%r14
    4785:	0f 84 9d 00 00 00    	je     4828 <_ZNSt7__cxx1112basic_stringIcSt11char_traitsIcESaIcEE9_M_mutateEmmPKcm+0x178>
    478b:	4c 89 f2             	mov    %r14,%rdx
    478e:	48 89 ce             	mov    %rcx,%rsi
    4791:	4c 89 4c 24 08       	mov    %r9,0x8(%rsp)
    4796:	e8 05 da ff ff       	call   21a0 <memcpy@plt>
    479b:	4c 8b 4c 24 08       	mov    0x8(%rsp),%r9
    47a0:	48 8b 04 24          	mov    (%rsp),%rax
    47a4:	48 85 c0             	test   %rax,%rax
    47a7:	74 2c                	je     47d5 <_ZNSt7__cxx1112basic_stringIcSt11char_traitsIcESaIcEE9_M_mutateEmmPKcm+0x125>
    47a9:	48 8b 74 24 10       	mov    0x10(%rsp),%rsi
    47ae:	4f 8d 04 34          	lea    (%r12,%r14,1),%r8
    47b2:	4b 8d 3c 07          	lea    (%r15,%r8,1),%rdi
    47b6:	4c 01 ce             	add    %r9,%rsi
    47b9:	48 83 f8 01          	cmp    $0x1,%rax
    47bd:	0f 84 7d 00 00 00    	je     4840 <_ZNSt7__cxx1112basic_stringIcSt11char_traitsIcESaIcEE9_M_mutateEmmPKcm+0x190>
    47c3:	48 89 c2             	mov    %rax,%rdx
    47c6:	4c 89 4c 24 08       	mov    %r9,0x8(%rsp)
    47cb:	e8 d0 d9 ff ff       	call   21a0 <memcpy@plt>
    47d0:	4c 8b 4c 24 08       	mov    0x8(%rsp),%r9
    47d5:	4d 39 e9             	cmp    %r13,%r9
    47d8:	74 10                	je     47ea <_ZNSt7__cxx1112basic_stringIcSt11char_traitsIcESaIcEE9_M_mutateEmmPKcm+0x13a>
    47da:	48 8b 43 10          	mov    0x10(%rbx),%rax
    47de:	4c 89 cf             	mov    %r9,%rdi
    47e1:	48 8d 70 01          	lea    0x1(%rax),%rsi
    47e5:	e8 f6 d9 ff ff       	call   21e0 <_ZdlPvm@plt>
    47ea:	4c 89 3b             	mov    %r15,(%rbx)
    47ed:	48 89 6b 10          	mov    %rbp,0x10(%rbx)
    47f1:	48 83 c4 28          	add    $0x28,%rsp
    47f5:	5b                   	pop    %rbx
    47f6:	5d                   	pop    %rbp
    47f7:	41 5c                	pop    %r12
    47f9:	41 5d                	pop    %r13
    47fb:	41 5e                	pop    %r14
    47fd:	41 5f                	pop    %r15
    47ff:	c3                   	ret    
    4800:	e8 6b d8 ff ff       	call   2070 <_ZSt17__throw_bad_allocv@plt>
    4805:	0f 1f 00             	nopl   (%rax)
    4808:	b8 0f 00 00 00       	mov    $0xf,%eax
    480d:	e9 e5 fe ff ff       	jmp    46f7 <_ZNSt7__cxx1112basic_stringIcSt11char_traitsIcESaIcEE9_M_mutateEmmPKcm+0x47>
    4812:	66 0f 1f 44 00 00    	nopw   0x0(%rax,%rax,1)
    4818:	41 0f b6 01          	movzbl (%r9),%eax
    481c:	41 88 07             	mov    %al,(%r15)
    481f:	e9 4f ff ff ff       	jmp    4773 <_ZNSt7__cxx1112basic_stringIcSt11char_traitsIcESaIcEE9_M_mutateEmmPKcm+0xc3>
    4824:	0f 1f 40 00          	nopl   0x0(%rax)
    4828:	0f b6 01             	movzbl (%rcx),%eax
    482b:	88 07                	mov    %al,(%rdi)
    482d:	48 8b 04 24          	mov    (%rsp),%rax
    4831:	48 85 c0             	test   %rax,%rax
    4834:	74 9f                	je     47d5 <_ZNSt7__cxx1112basic_stringIcSt11char_traitsIcESaIcEE9_M_mutateEmmPKcm+0x125>
    4836:	e9 6e ff ff ff       	jmp    47a9 <_ZNSt7__cxx1112basic_stringIcSt11char_traitsIcESaIcEE9_M_mutateEmmPKcm+0xf9>
    483b:	0f 1f 44 00 00       	nopl   0x0(%rax,%rax,1)
    4840:	0f b6 06             	movzbl (%rsi),%eax
    4843:	88 07                	mov    %al,(%rdi)
    4845:	4d 39 e9             	cmp    %r13,%r9
    4848:	75 90                	jne    47da <_ZNSt7__cxx1112basic_stringIcSt11char_traitsIcESaIcEE9_M_mutateEmmPKcm+0x12a>
    484a:	eb 9e                	jmp    47ea <_ZNSt7__cxx1112basic_stringIcSt11char_traitsIcESaIcEE9_M_mutateEmmPKcm+0x13a>
    484c:	48 8d 3d ef 97 02 00 	lea    0x297ef(%rip),%rdi        # 2e042 <_IO_stdin_used+0x42>
    4853:	e8 88 d8 ff ff       	call   20e0 <_ZSt20__throw_length_errorPKc@plt>
    4858:	0f 1f 84 00 00 00 00 	nopl   0x0(%rax,%rax,1)
    485f:	00 

0000000000004860 <_ZStplIcSt11char_traitsIcESaIcEENSt7__cxx1112basic_stringIT_T0_T1_EES5_RKS8_>:
    4860:	41 57                	push   %r15
    4862:	41 56                	push   %r14
    4864:	41 55                	push   %r13
    4866:	41 89 f5             	mov    %esi,%r13d
    4869:	41 54                	push   %r12
    486b:	49 89 fc             	mov    %rdi,%r12
    486e:	55                   	push   %rbp
    486f:	48 8d 6f 10          	lea    0x10(%rdi),%rbp
    4873:	53                   	push   %rbx
    4874:	48 89 d3             	mov    %rdx,%rbx
    4877:	48 83 ec 18          	sub    $0x18,%rsp
    487b:	48 89 2f             	mov    %rbp,(%rdi)
    487e:	48 c7 47 08 00 00 00 	movq   $0x0,0x8(%rdi)
    4885:	00 
    4886:	c6 47 10 00          	movb   $0x0,0x10(%rdi)
    488a:	48 8b 7a 08          	mov    0x8(%rdx),%rdi
    488e:	4c 8d 7f 01          	lea    0x1(%rdi),%r15
    4892:	49 83 ff 0f          	cmp    $0xf,%r15
    4896:	0f 87 8c 00 00 00    	ja     4928 <_ZStplIcSt11char_traitsIcESaIcEENSt7__cxx1112basic_stringIT_T0_T1_EES5_RKS8_+0xc8>
    489c:	48 89 e9             	mov    %rbp,%rcx
    489f:	45 31 f6             	xor    %r14d,%r14d
    48a2:	41 bf 01 00 00 00    	mov    $0x1,%r15d
    48a8:	46 88 2c 31          	mov    %r13b,(%rcx,%r14,1)
    48ac:	49 8b 04 24          	mov    (%r12),%rax
    48b0:	4d 89 7c 24 08       	mov    %r15,0x8(%r12)
    48b5:	42 c6 04 38 00       	movb   $0x0,(%rax,%r15,1)
    48ba:	4c 8b 43 08          	mov    0x8(%rbx),%r8
    48be:	49 8b 74 24 08       	mov    0x8(%r12),%rsi
    48c3:	49 8b 3c 24          	mov    (%r12),%rdi
    48c7:	48 8b 0b             	mov    (%rbx),%rcx
    48ca:	49 8d 1c 30          	lea    (%r8,%rsi,1),%rbx
    48ce:	48 39 fd             	cmp    %rdi,%rbp
    48d1:	0f 84 79 01 00 00    	je     4a50 <_ZStplIcSt11char_traitsIcESaIcEENSt7__cxx1112basic_stringIT_T0_T1_EES5_RKS8_+0x1f0>
    48d7:	49 8b 44 24 10       	mov    0x10(%r12),%rax
    48dc:	48 39 c3             	cmp    %rax,%rbx
    48df:	0f 87 0b 01 00 00    	ja     49f0 <_ZStplIcSt11char_traitsIcESaIcEENSt7__cxx1112basic_stringIT_T0_T1_EES5_RKS8_+0x190>
    48e5:	4d 85 c0             	test   %r8,%r8
    48e8:	74 1c                	je     4906 <_ZStplIcSt11char_traitsIcESaIcEENSt7__cxx1112basic_stringIT_T0_T1_EES5_RKS8_+0xa6>
    48ea:	48 01 f7             	add    %rsi,%rdi
    48ed:	49 83 f8 01          	cmp    $0x1,%r8
    48f1:	0f 84 81 01 00 00    	je     4a78 <_ZStplIcSt11char_traitsIcESaIcEENSt7__cxx1112basic_stringIT_T0_T1_EES5_RKS8_+0x218>
    48f7:	4c 89 c2             	mov    %r8,%rdx
    48fa:	48 89 ce             	mov    %rcx,%rsi
    48fd:	e8 9e d8 ff ff       	call   21a0 <memcpy@plt>
    4902:	49 8b 3c 24          	mov    (%r12),%rdi
    4906:	49 89 5c 24 08       	mov    %rbx,0x8(%r12)
    490b:	4c 89 e0             	mov    %r12,%rax
    490e:	c6 04 1f 00          	movb   $0x0,(%rdi,%rbx,1)
    4912:	48 83 c4 18          	add    $0x18,%rsp
    4916:	5b                   	pop    %rbx
    4917:	5d                   	pop    %rbp
    4918:	41 5c                	pop    %r12
    491a:	41 5d                	pop    %r13
    491c:	41 5e                	pop    %r14
    491e:	41 5f                	pop    %r15
    4920:	c3                   	ret    
    4921:	0f 1f 80 00 00 00 00 	nopl   0x0(%rax)
    4928:	4d 85 ff             	test   %r15,%r15
    492b:	0f 88 70 01 00 00    	js     4aa1 <_ZStplIcSt11char_traitsIcESaIcEENSt7__cxx1112basic_stringIT_T0_T1_EES5_RKS8_+0x241>
    4931:	49 83 ff 1d          	cmp    $0x1d,%r15
    4935:	0f 86 05 01 00 00    	jbe    4a40 <_ZStplIcSt11char_traitsIcESaIcEENSt7__cxx1112basic_stringIT_T0_T1_EES5_RKS8_+0x1e0>
    493b:	48 83 c7 02          	add    $0x2,%rdi
    493f:	0f 88 4b 01 00 00    	js     4a90 <_ZStplIcSt11char_traitsIcESaIcEENSt7__cxx1112basic_stringIT_T0_T1_EES5_RKS8_+0x230>
    4945:	e8 86 d8 ff ff       	call   21d0 <_Znwm@plt>
    494a:	4d 8b 74 24 08       	mov    0x8(%r12),%r14
    494f:	4d 8b 04 24          	mov    (%r12),%r8
    4953:	48 89 c1             	mov    %rax,%rcx
    4956:	49 8d 56 01          	lea    0x1(%r14),%rdx
    495a:	4d 85 f6             	test   %r14,%r14
    495d:	0f 84 fd 00 00 00    	je     4a60 <_ZStplIcSt11char_traitsIcESaIcEENSt7__cxx1112basic_stringIT_T0_T1_EES5_RKS8_+0x200>
    4963:	48 85 d2             	test   %rdx,%rdx
    4966:	0f 85 9c 00 00 00    	jne    4a08 <_ZStplIcSt11char_traitsIcESaIcEENSt7__cxx1112basic_stringIT_T0_T1_EES5_RKS8_+0x1a8>
    496c:	4c 39 c5             	cmp    %r8,%rbp
    496f:	0f 84 bb 00 00 00    	je     4a30 <_ZStplIcSt11char_traitsIcESaIcEENSt7__cxx1112basic_stringIT_T0_T1_EES5_RKS8_+0x1d0>
    4975:	49 8b 44 24 10       	mov    0x10(%r12),%rax
    497a:	4c 89 c7             	mov    %r8,%rdi
    497d:	48 89 4c 24 08       	mov    %rcx,0x8(%rsp)
    4982:	48 8d 70 01          	lea    0x1(%rax),%rsi
    4986:	e8 55 d8 ff ff       	call   21e0 <_ZdlPvm@plt>
    498b:	4d 8b 74 24 08       	mov    0x8(%r12),%r14
    4990:	48 8b 4c 24 08       	mov    0x8(%rsp),%rcx
    4995:	48 b8 ff ff ff ff ff 	movabs $0x7fffffffffffffff,%rax
    499c:	ff ff 7f 
    499f:	49 89 0c 24          	mov    %rcx,(%r12)
    49a3:	4d 89 7c 24 10       	mov    %r15,0x10(%r12)
    49a8:	49 39 c6             	cmp    %rax,%r14
    49ab:	0f 84 e4 00 00 00    	je     4a95 <_ZStplIcSt11char_traitsIcESaIcEENSt7__cxx1112basic_stringIT_T0_T1_EES5_RKS8_+0x235>
    49b1:	49 8d 56 01          	lea    0x1(%r14),%rdx
    49b5:	49 89 d7             	mov    %rdx,%r15
    49b8:	48 39 cd             	cmp    %rcx,%rbp
    49bb:	0f 84 ec 00 00 00    	je     4aad <_ZStplIcSt11char_traitsIcESaIcEENSt7__cxx1112basic_stringIT_T0_T1_EES5_RKS8_+0x24d>
    49c1:	49 8b 44 24 10       	mov    0x10(%r12),%rax
    49c6:	48 39 d0             	cmp    %rdx,%rax
    49c9:	0f 83 d9 fe ff ff    	jae    48a8 <_ZStplIcSt11char_traitsIcESaIcEENSt7__cxx1112basic_stringIT_T0_T1_EES5_RKS8_+0x48>
    49cf:	41 b8 01 00 00 00    	mov    $0x1,%r8d
    49d5:	31 c9                	xor    %ecx,%ecx
    49d7:	31 d2                	xor    %edx,%edx
    49d9:	4c 89 f6             	mov    %r14,%rsi
    49dc:	4c 89 e7             	mov    %r12,%rdi
    49df:	e8 cc fc ff ff       	call   46b0 <_ZNSt7__cxx1112basic_stringIcSt11char_traitsIcESaIcEE9_M_mutateEmmPKcm>
    49e4:	49 8b 0c 24          	mov    (%r12),%rcx
    49e8:	e9 bb fe ff ff       	jmp    48a8 <_ZStplIcSt11char_traitsIcESaIcEENSt7__cxx1112basic_stringIT_T0_T1_EES5_RKS8_+0x48>
    49ed:	0f 1f 00             	nopl   (%rax)
    49f0:	31 d2                	xor    %edx,%edx
    49f2:	4c 89 e7             	mov    %r12,%rdi
    49f5:	e8 b6 fc ff ff       	call   46b0 <_ZNSt7__cxx1112basic_stringIcSt11char_traitsIcESaIcEE9_M_mutateEmmPKcm>
    49fa:	49 8b 3c 24          	mov    (%r12),%rdi
    49fe:	e9 03 ff ff ff       	jmp    4906 <_ZStplIcSt11char_traitsIcESaIcEENSt7__cxx1112basic_stringIT_T0_T1_EES5_RKS8_+0xa6>
    4a03:	0f 1f 44 00 00       	nopl   0x0(%rax,%rax,1)
    4a08:	4c 89 c6             	mov    %r8,%rsi
    4a0b:	48 89 c7             	mov    %rax,%rdi
    4a0e:	4c 89 44 24 08       	mov    %r8,0x8(%rsp)
    4a13:	e8 88 d7 ff ff       	call   21a0 <memcpy@plt>
    4a18:	4c 8b 44 24 08       	mov    0x8(%rsp),%r8
    4a1d:	48 89 c1             	mov    %rax,%rcx
    4a20:	4c 39 c5             	cmp    %r8,%rbp
    4a23:	0f 85 4c ff ff ff    	jne    4975 <_ZStplIcSt11char_traitsIcESaIcEENSt7__cxx1112basic_stringIT_T0_T1_EES5_RKS8_+0x115>
    4a29:	e9 67 ff ff ff       	jmp    4995 <_ZStplIcSt11char_traitsIcESaIcEENSt7__cxx1112basic_stringIT_T0_T1_EES5_RKS8_+0x135>
    4a2e:	66 90                	xchg   %ax,%ax
    4a30:	49 89 0c 24          	mov    %rcx,(%r12)
    4a34:	4d 89 7c 24 10       	mov    %r15,0x10(%r12)
    4a39:	e9 77 ff ff ff       	jmp    49b5 <_ZStplIcSt11char_traitsIcESaIcEENSt7__cxx1112basic_stringIT_T0_T1_EES5_RKS8_+0x155>
    4a3e:	66 90                	xchg   %ax,%ax
    4a40:	41 bf 1e 00 00 00    	mov    $0x1e,%r15d
    4a46:	bf 1f 00 00 00       	mov    $0x1f,%edi
    4a4b:	e9 f5 fe ff ff       	jmp    4945 <_ZStplIcSt11char_traitsIcESaIcEENSt7__cxx1112basic_stringIT_T0_T1_EES5_RKS8_+0xe5>
    4a50:	b8 0f 00 00 00       	mov    $0xf,%eax
    4a55:	e9 82 fe ff ff       	jmp    48dc <_ZStplIcSt11char_traitsIcESaIcEENSt7__cxx1112basic_stringIT_T0_T1_EES5_RKS8_+0x7c>
    4a5a:	66 0f 1f 44 00 00    	nopw   0x0(%rax,%rax,1)
    4a60:	41 0f b6 00          	movzbl (%r8),%eax
    4a64:	88 01                	mov    %al,(%rcx)
    4a66:	4c 39 c5             	cmp    %r8,%rbp
    4a69:	0f 85 06 ff ff ff    	jne    4975 <_ZStplIcSt11char_traitsIcESaIcEENSt7__cxx1112basic_stringIT_T0_T1_EES5_RKS8_+0x115>
    4a6f:	eb bf                	jmp    4a30 <_ZStplIcSt11char_traitsIcESaIcEENSt7__cxx1112basic_stringIT_T0_T1_EES5_RKS8_+0x1d0>
    4a71:	0f 1f 80 00 00 00 00 	nopl   0x0(%rax)
    4a78:	0f b6 01             	movzbl (%rcx),%eax
    4a7b:	88 07                	mov    %al,(%rdi)
    4a7d:	49 8b 3c 24          	mov    (%r12),%rdi
    4a81:	e9 80 fe ff ff       	jmp    4906 <_ZStplIcSt11char_traitsIcESaIcEENSt7__cxx1112basic_stringIT_T0_T1_EES5_RKS8_+0xa6>
    4a86:	66 2e 0f 1f 84 00 00 	cs nopw 0x0(%rax,%rax,1)
    4a8d:	00 00 00 
    4a90:	e8 db d5 ff ff       	call   2070 <_ZSt17__throw_bad_allocv@plt>
    4a95:	48 8d 3d f6 95 02 00 	lea    0x295f6(%rip),%rdi        # 2e092 <_IO_stdin_used+0x92>
    4a9c:	e8 3f d6 ff ff       	call   20e0 <_ZSt20__throw_length_errorPKc@plt>
    4aa1:	48 8d 3d 9a 95 02 00 	lea    0x2959a(%rip),%rdi        # 2e042 <_IO_stdin_used+0x42>
    4aa8:	e8 33 d6 ff ff       	call   20e0 <_ZSt20__throw_length_errorPKc@plt>
    4aad:	b8 0f 00 00 00       	mov    $0xf,%eax
    4ab2:	e9 0f ff ff ff       	jmp    49c6 <_ZStplIcSt11char_traitsIcESaIcEENSt7__cxx1112basic_stringIT_T0_T1_EES5_RKS8_+0x166>
    4ab7:	49 89 c5             	mov    %rax,%r13
    4aba:	49 8b 3c 24          	mov    (%r12),%rdi
    4abe:	48 39 fd             	cmp    %rdi,%rbp
    4ac1:	74 0e                	je     4ad1 <_ZStplIcSt11char_traitsIcESaIcEENSt7__cxx1112basic_stringIT_T0_T1_EES5_RKS8_+0x271>
    4ac3:	49 8b 74 24 10       	mov    0x10(%r12),%rsi
    4ac8:	48 83 c6 01          	add    $0x1,%rsi
    4acc:	e8 0f d7 ff ff       	call   21e0 <_ZdlPvm@plt>
    4ad1:	4c 89 ef             	mov    %r13,%rdi
    4ad4:	e8 27 d9 ff ff       	call   2400 <_Unwind_Resume@plt>
    4ad9:	0f 1f 80 00 00 00 00 	nopl   0x0(%rax)

0000000000004ae0 <_ZStplIcSt11char_traitsIcESaIcEENSt7__cxx1112basic_stringIT_T0_T1_EEOS8_PKS5_>:
    4ae0:	41 56                	push   %r14
    4ae2:	41 55                	push   %r13
    4ae4:	49 89 d5             	mov    %rdx,%r13
    4ae7:	41 54                	push   %r12
    4ae9:	49 89 fc             	mov    %rdi,%r12
    4aec:	48 89 d7             	mov    %rdx,%rdi
    4aef:	55                   	push   %rbp
    4af0:	53                   	push   %rbx
    4af1:	48 89 f3             	mov    %rsi,%rbx
    4af4:	e8 b7 d5 ff ff       	call   20b0 <strlen@plt>
    4af9:	48 8b 73 08          	mov    0x8(%rbx),%rsi
    4afd:	49 89 c0             	mov    %rax,%r8
    4b00:	48 b8 ff ff ff ff ff 	movabs $0x7fffffffffffffff,%rax
    4b07:	ff ff 7f 
    4b0a:	48 29 f0             	sub    %rsi,%rax
    4b0d:	49 39 c0             	cmp    %rax,%r8
    4b10:	0f 87 d9 00 00 00    	ja     4bef <_ZStplIcSt11char_traitsIcESaIcEENSt7__cxx1112basic_stringIT_T0_T1_EEOS8_PKS5_+0x10f>
    4b16:	48 8b 3b             	mov    (%rbx),%rdi
    4b19:	48 8d 6b 10          	lea    0x10(%rbx),%rbp
    4b1d:	4d 8d 34 30          	lea    (%r8,%rsi,1),%r14
    4b21:	48 39 ef             	cmp    %rbp,%rdi
    4b24:	0f 84 a6 00 00 00    	je     4bd0 <_ZStplIcSt11char_traitsIcESaIcEENSt7__cxx1112basic_stringIT_T0_T1_EEOS8_PKS5_+0xf0>
    4b2a:	48 8b 43 10          	mov    0x10(%rbx),%rax
    4b2e:	49 39 c6             	cmp    %rax,%r14
    4b31:	77 75                	ja     4ba8 <_ZStplIcSt11char_traitsIcESaIcEENSt7__cxx1112basic_stringIT_T0_T1_EEOS8_PKS5_+0xc8>
    4b33:	4d 85 c0             	test   %r8,%r8
    4b36:	75 50                	jne    4b88 <_ZStplIcSt11char_traitsIcESaIcEENSt7__cxx1112basic_stringIT_T0_T1_EEOS8_PKS5_+0xa8>
    4b38:	49 8d 44 24 10       	lea    0x10(%r12),%rax
    4b3d:	4c 89 73 08          	mov    %r14,0x8(%rbx)
    4b41:	42 c6 04 37 00       	movb   $0x0,(%rdi,%r14,1)
    4b46:	49 89 04 24          	mov    %rax,(%r12)
    4b4a:	48 8b 03             	mov    (%rbx),%rax
    4b4d:	48 39 e8             	cmp    %rbp,%rax
    4b50:	74 6e                	je     4bc0 <_ZStplIcSt11char_traitsIcESaIcEENSt7__cxx1112basic_stringIT_T0_T1_EEOS8_PKS5_+0xe0>
    4b52:	49 89 04 24          	mov    %rax,(%r12)
    4b56:	48 8b 43 10          	mov    0x10(%rbx),%rax
    4b5a:	49 89 44 24 10       	mov    %rax,0x10(%r12)
    4b5f:	48 8b 43 08          	mov    0x8(%rbx),%rax
    4b63:	48 89 2b             	mov    %rbp,(%rbx)
    4b66:	48 c7 43 08 00 00 00 	movq   $0x0,0x8(%rbx)
    4b6d:	00 
    4b6e:	49 89 44 24 08       	mov    %rax,0x8(%r12)
    4b73:	4c 89 e0             	mov    %r12,%rax
    4b76:	c6 43 10 00          	movb   $0x0,0x10(%rbx)
    4b7a:	5b                   	pop    %rbx
    4b7b:	5d                   	pop    %rbp
    4b7c:	41 5c                	pop    %r12
    4b7e:	41 5d                	pop    %r13
    4b80:	41 5e                	pop    %r14
    4b82:	c3                   	ret    
    4b83:	0f 1f 44 00 00       	nopl   0x0(%rax,%rax,1)
    4b88:	48 01 f7             	add    %rsi,%rdi
    4b8b:	49 83 f8 01          	cmp    $0x1,%r8
    4b8f:	74 4f                	je     4be0 <_ZStplIcSt11char_traitsIcESaIcEENSt7__cxx1112basic_stringIT_T0_T1_EEOS8_PKS5_+0x100>
    4b91:	4c 89 c2             	mov    %r8,%rdx
    4b94:	4c 89 ee             	mov    %r13,%rsi
    4b97:	e8 04 d6 ff ff       	call   21a0 <memcpy@plt>
    4b9c:	48 8b 3b             	mov    (%rbx),%rdi
    4b9f:	eb 97                	jmp    4b38 <_ZStplIcSt11char_traitsIcESaIcEENSt7__cxx1112basic_stringIT_T0_T1_EEOS8_PKS5_+0x58>
    4ba1:	0f 1f 80 00 00 00 00 	nopl   0x0(%rax)
    4ba8:	48 89 df             	mov    %rbx,%rdi
    4bab:	4c 89 e9             	mov    %r13,%rcx
    4bae:	31 d2                	xor    %edx,%edx
    4bb0:	e8 fb fa ff ff       	call   46b0 <_ZNSt7__cxx1112basic_stringIcSt11char_traitsIcESaIcEE9_M_mutateEmmPKcm>
    4bb5:	48 8b 3b             	mov    (%rbx),%rdi
    4bb8:	e9 7b ff ff ff       	jmp    4b38 <_ZStplIcSt11char_traitsIcESaIcEENSt7__cxx1112basic_stringIT_T0_T1_EEOS8_PKS5_+0x58>
    4bbd:	0f 1f 00             	nopl   (%rax)
    4bc0:	f3 0f 6f 43 10       	movdqu 0x10(%rbx),%xmm0
    4bc5:	41 0f 11 44 24 10    	movups %xmm0,0x10(%r12)
    4bcb:	eb 92                	jmp    4b5f <_ZStplIcSt11char_traitsIcESaIcEENSt7__cxx1112basic_stringIT_T0_T1_EEOS8_PKS5_+0x7f>
    4bcd:	0f 1f 00             	nopl   (%rax)
    4bd0:	b8 0f 00 00 00       	mov    $0xf,%eax
    4bd5:	e9 54 ff ff ff       	jmp    4b2e <_ZStplIcSt11char_traitsIcESaIcEENSt7__cxx1112basic_stringIT_T0_T1_EEOS8_PKS5_+0x4e>
    4bda:	66 0f 1f 44 00 00    	nopw   0x0(%rax,%rax,1)
    4be0:	41 0f b6 45 00       	movzbl 0x0(%r13),%eax
    4be5:	88 07                	mov    %al,(%rdi)
    4be7:	48 8b 3b             	mov    (%rbx),%rdi
    4bea:	e9 49 ff ff ff       	jmp    4b38 <_ZStplIcSt11char_traitsIcESaIcEENSt7__cxx1112basic_stringIT_T0_T1_EEOS8_PKS5_+0x58>
    4bef:	48 8d 3d b9 94 02 00 	lea    0x294b9(%rip),%rdi        # 2e0af <_IO_stdin_used+0xaf>
    4bf6:	e8 e5 d4 ff ff       	call   20e0 <_ZSt20__throw_length_errorPKc@plt>
    4bfb:	0f 1f 44 00 00       	nopl   0x0(%rax,%rax,1)

0000000000004c00 <_ZStplIcSt11char_traitsIcESaIcEENSt7__cxx1112basic_stringIT_T0_T1_EEPKS5_RKS8_>:
    4c00:	41 57                	push   %r15
    4c02:	41 56                	push   %r14
    4c04:	49 89 f6             	mov    %rsi,%r14
    4c07:	41 55                	push   %r13
    4c09:	41 54                	push   %r12
    4c0b:	49 89 fc             	mov    %rdi,%r12
    4c0e:	48 89 f7             	mov    %rsi,%rdi
    4c11:	55                   	push   %rbp
    4c12:	49 8d 6c 24 10       	lea    0x10(%r12),%rbp
    4c17:	53                   	push   %rbx
    4c18:	48 89 d3             	mov    %rdx,%rbx
    4c1b:	48 83 ec 18          	sub    $0x18,%rsp
    4c1f:	e8 8c d4 ff ff       	call   20b0 <strlen@plt>
    4c24:	41 c6 44 24 10 00    	movb   $0x0,0x10(%r12)
    4c2a:	49 c7 44 24 08 00 00 	movq   $0x0,0x8(%r12)
    4c31:	00 00 
    4c33:	4c 8b 7b 08          	mov    0x8(%rbx),%r15
    4c37:	49 89 c5             	mov    %rax,%r13
    4c3a:	49 89 2c 24          	mov    %rbp,(%r12)
    4c3e:	49 01 c7             	add    %rax,%r15
    4c41:	49 83 ff 0f          	cmp    $0xf,%r15
    4c45:	0f 87 bd 00 00 00    	ja     4d08 <_ZStplIcSt11char_traitsIcESaIcEENSt7__cxx1112basic_stringIT_T0_T1_EEPKS5_RKS8_+0x108>
    4c4b:	49 89 c7             	mov    %rax,%r15
    4c4e:	48 89 e9             	mov    %rbp,%rcx
    4c51:	45 31 c9             	xor    %r9d,%r9d
    4c54:	b8 0f 00 00 00       	mov    $0xf,%eax
    4c59:	4c 39 f8             	cmp    %r15,%rax
    4c5c:	0f 82 4f 01 00 00    	jb     4db1 <_ZStplIcSt11char_traitsIcESaIcEENSt7__cxx1112basic_stringIT_T0_T1_EEPKS5_RKS8_+0x1b1>
    4c62:	66 0f 1f 44 00 00    	nopw   0x0(%rax,%rax,1)
    4c68:	4d 85 ed             	test   %r13,%r13
    4c6b:	75 73                	jne    4ce0 <_ZStplIcSt11char_traitsIcESaIcEENSt7__cxx1112basic_stringIT_T0_T1_EEPKS5_RKS8_+0xe0>
    4c6d:	4d 89 7c 24 08       	mov    %r15,0x8(%r12)
    4c72:	42 c6 04 39 00       	movb   $0x0,(%rcx,%r15,1)
    4c77:	4c 8b 43 08          	mov    0x8(%rbx),%r8
    4c7b:	49 8b 74 24 08       	mov    0x8(%r12),%rsi
    4c80:	49 8b 3c 24          	mov    (%r12),%rdi
    4c84:	48 8b 0b             	mov    (%rbx),%rcx
    4c87:	49 8d 1c 30          	lea    (%r8,%rsi,1),%rbx
    4c8b:	48 39 fd             	cmp    %rdi,%rbp
    4c8e:	0f 84 ac 01 00 00    	je     4e40 <_ZStplIcSt11char_traitsIcESaIcEENSt7__cxx1112basic_stringIT_T0_T1_EEPKS5_RKS8_+0x240>
    4c94:	49 8b 44 24 10       	mov    0x10(%r12),%rax
    4c99:	48 39 c3             	cmp    %rax,%rbx
    4c9c:	0f 87 2e 01 00 00    	ja     4dd0 <_ZStplIcSt11char_traitsIcESaIcEENSt7__cxx1112basic_stringIT_T0_T1_EEPKS5_RKS8_+0x1d0>
    4ca2:	4d 85 c0             	test   %r8,%r8
    4ca5:	74 1c                	je     4cc3 <_ZStplIcSt11char_traitsIcESaIcEENSt7__cxx1112basic_stringIT_T0_T1_EEPKS5_RKS8_+0xc3>
    4ca7:	48 01 f7             	add    %rsi,%rdi
    4caa:	49 83 f8 01          	cmp    $0x1,%r8
    4cae:	0f 84 cc 01 00 00    	je     4e80 <_ZStplIcSt11char_traitsIcESaIcEENSt7__cxx1112basic_stringIT_T0_T1_EEPKS5_RKS8_+0x280>
    4cb4:	4c 89 c2             	mov    %r8,%rdx
    4cb7:	48 89 ce             	mov    %rcx,%rsi
    4cba:	e8 e1 d4 ff ff       	call   21a0 <memcpy@plt>
    4cbf:	49 8b 3c 24          	mov    (%r12),%rdi
    4cc3:	49 89 5c 24 08       	mov    %rbx,0x8(%r12)
    4cc8:	4c 89 e0             	mov    %r12,%rax
    4ccb:	c6 04 1f 00          	movb   $0x0,(%rdi,%rbx,1)
    4ccf:	48 83 c4 18          	add    $0x18,%rsp
    4cd3:	5b                   	pop    %rbx
    4cd4:	5d                   	pop    %rbp
    4cd5:	41 5c                	pop    %r12
    4cd7:	41 5d                	pop    %r13
    4cd9:	41 5e                	pop    %r14
    4cdb:	41 5f                	pop    %r15
    4cdd:	c3                   	ret    
    4cde:	66 90                	xchg   %ax,%ax
    4ce0:	4a 8d 3c 09          	lea    (%rcx,%r9,1),%rdi
    4ce4:	49 83 fd 01          	cmp    $0x1,%r13
    4ce8:	0f 84 7a 01 00 00    	je     4e68 <_ZStplIcSt11char_traitsIcESaIcEENSt7__cxx1112basic_stringIT_T0_T1_EEPKS5_RKS8_+0x268>
    4cee:	4c 89 ea             	mov    %r13,%rdx
    4cf1:	4c 89 f6             	mov    %r14,%rsi
    4cf4:	e8 a7 d4 ff ff       	call   21a0 <memcpy@plt>
    4cf9:	49 8b 0c 24          	mov    (%r12),%rcx
    4cfd:	e9 6b ff ff ff       	jmp    4c6d <_ZStplIcSt11char_traitsIcESaIcEENSt7__cxx1112basic_stringIT_T0_T1_EEPKS5_RKS8_+0x6d>
    4d02:	66 0f 1f 44 00 00    	nopw   0x0(%rax,%rax,1)
    4d08:	4d 85 ff             	test   %r15,%r15
    4d0b:	0f 88 90 01 00 00    	js     4ea1 <_ZStplIcSt11char_traitsIcESaIcEENSt7__cxx1112basic_stringIT_T0_T1_EEPKS5_RKS8_+0x2a1>
    4d11:	49 83 ff 1d          	cmp    $0x1d,%r15
    4d15:	0f 86 15 01 00 00    	jbe    4e30 <_ZStplIcSt11char_traitsIcESaIcEENSt7__cxx1112basic_stringIT_T0_T1_EEPKS5_RKS8_+0x230>
    4d1b:	4c 89 ff             	mov    %r15,%rdi
    4d1e:	48 83 c7 01          	add    $0x1,%rdi
    4d22:	0f 88 68 01 00 00    	js     4e90 <_ZStplIcSt11char_traitsIcESaIcEENSt7__cxx1112basic_stringIT_T0_T1_EEPKS5_RKS8_+0x290>
    4d28:	e8 a3 d4 ff ff       	call   21d0 <_Znwm@plt>
    4d2d:	4d 8b 4c 24 08       	mov    0x8(%r12),%r9
    4d32:	4d 8b 04 24          	mov    (%r12),%r8
    4d36:	48 89 c1             	mov    %rax,%rcx
    4d39:	49 8d 51 01          	lea    0x1(%r9),%rdx
    4d3d:	4d 85 c9             	test   %r9,%r9
    4d40:	0f 84 0a 01 00 00    	je     4e50 <_ZStplIcSt11char_traitsIcESaIcEENSt7__cxx1112basic_stringIT_T0_T1_EEPKS5_RKS8_+0x250>
    4d46:	48 85 d2             	test   %rdx,%rdx
    4d49:	0f 85 99 00 00 00    	jne    4de8 <_ZStplIcSt11char_traitsIcESaIcEENSt7__cxx1112basic_stringIT_T0_T1_EEPKS5_RKS8_+0x1e8>
    4d4f:	4c 39 c5             	cmp    %r8,%rbp
    4d52:	0f 84 c8 00 00 00    	je     4e20 <_ZStplIcSt11char_traitsIcESaIcEENSt7__cxx1112basic_stringIT_T0_T1_EEPKS5_RKS8_+0x220>
    4d58:	49 8b 44 24 10       	mov    0x10(%r12),%rax
    4d5d:	4c 89 c7             	mov    %r8,%rdi
    4d60:	48 89 0c 24          	mov    %rcx,(%rsp)
    4d64:	48 8d 70 01          	lea    0x1(%rax),%rsi
    4d68:	e8 73 d4 ff ff       	call   21e0 <_ZdlPvm@plt>
    4d6d:	4d 8b 4c 24 08       	mov    0x8(%r12),%r9
    4d72:	48 8b 0c 24          	mov    (%rsp),%rcx
    4d76:	48 b8 ff ff ff ff ff 	movabs $0x7fffffffffffffff,%rax
    4d7d:	ff ff 7f 
    4d80:	49 89 0c 24          	mov    %rcx,(%r12)
    4d84:	4c 29 c8             	sub    %r9,%rax
    4d87:	4d 89 7c 24 10       	mov    %r15,0x10(%r12)
    4d8c:	49 39 c5             	cmp    %rax,%r13
    4d8f:	0f 87 00 01 00 00    	ja     4e95 <_ZStplIcSt11char_traitsIcESaIcEENSt7__cxx1112basic_stringIT_T0_T1_EEPKS5_RKS8_+0x295>
    4d95:	4f 8d 7c 0d 00       	lea    0x0(%r13,%r9,1),%r15
    4d9a:	48 39 cd             	cmp    %rcx,%rbp
    4d9d:	0f 84 0a 01 00 00    	je     4ead <_ZStplIcSt11char_traitsIcESaIcEENSt7__cxx1112basic_stringIT_T0_T1_EEPKS5_RKS8_+0x2ad>
    4da3:	49 8b 44 24 10       	mov    0x10(%r12),%rax
    4da8:	4c 39 f8             	cmp    %r15,%rax
    4dab:	0f 83 b7 fe ff ff    	jae    4c68 <_ZStplIcSt11char_traitsIcESaIcEENSt7__cxx1112basic_stringIT_T0_T1_EEPKS5_RKS8_+0x68>
    4db1:	4d 89 e8             	mov    %r13,%r8
    4db4:	4c 89 f1             	mov    %r14,%rcx
    4db7:	31 d2                	xor    %edx,%edx
    4db9:	4c 89 ce             	mov    %r9,%rsi
    4dbc:	4c 89 e7             	mov    %r12,%rdi
    4dbf:	e8 ec f8 ff ff       	call   46b0 <_ZNSt7__cxx1112basic_stringIcSt11char_traitsIcESaIcEE9_M_mutateEmmPKcm>
    4dc4:	49 8b 0c 24          	mov    (%r12),%rcx
    4dc8:	e9 a0 fe ff ff       	jmp    4c6d <_ZStplIcSt11char_traitsIcESaIcEENSt7__cxx1112basic_stringIT_T0_T1_EEPKS5_RKS8_+0x6d>
    4dcd:	0f 1f 00             	nopl   (%rax)
    4dd0:	31 d2                	xor    %edx,%edx
    4dd2:	4c 89 e7             	mov    %r12,%rdi
    4dd5:	e8 d6 f8 ff ff       	call   46b0 <_ZNSt7__cxx1112basic_stringIcSt11char_traitsIcESaIcEE9_M_mutateEmmPKcm>
    4dda:	49 8b 3c 24          	mov    (%r12),%rdi
    4dde:	e9 e0 fe ff ff       	jmp    4cc3 <_ZStplIcSt11char_traitsIcESaIcEENSt7__cxx1112basic_stringIT_T0_T1_EEPKS5_RKS8_+0xc3>
    4de3:	0f 1f 44 00 00       	nopl   0x0(%rax,%rax,1)
    4de8:	4c 89 c6             	mov    %r8,%rsi
    4deb:	48 89 c7             	mov    %rax,%rdi
    4dee:	4c 89 4c 24 08       	mov    %r9,0x8(%rsp)
    4df3:	4c 89 04 24          	mov    %r8,(%rsp)
    4df7:	e8 a4 d3 ff ff       	call   21a0 <memcpy@plt>
    4dfc:	4c 8b 04 24          	mov    (%rsp),%r8
    4e00:	4c 8b 4c 24 08       	mov    0x8(%rsp),%r9
    4e05:	48 89 c1             	mov    %rax,%rcx
    4e08:	4c 39 c5             	cmp    %r8,%rbp
    4e0b:	0f 85 47 ff ff ff    	jne    4d58 <_ZStplIcSt11char_traitsIcESaIcEENSt7__cxx1112basic_stringIT_T0_T1_EEPKS5_RKS8_+0x158>
    4e11:	e9 60 ff ff ff       	jmp    4d76 <_ZStplIcSt11char_traitsIcESaIcEENSt7__cxx1112basic_stringIT_T0_T1_EEPKS5_RKS8_+0x176>
    4e16:	66 2e 0f 1f 84 00 00 	cs nopw 0x0(%rax,%rax,1)
    4e1d:	00 00 00 
    4e20:	49 89 0c 24          	mov    %rcx,(%r12)
    4e24:	4d 89 7c 24 10       	mov    %r15,0x10(%r12)
    4e29:	e9 67 ff ff ff       	jmp    4d95 <_ZStplIcSt11char_traitsIcESaIcEENSt7__cxx1112basic_stringIT_T0_T1_EEPKS5_RKS8_+0x195>
    4e2e:	66 90                	xchg   %ax,%ax
    4e30:	41 bf 1e 00 00 00    	mov    $0x1e,%r15d
    4e36:	bf 1f 00 00 00       	mov    $0x1f,%edi
    4e3b:	e9 e8 fe ff ff       	jmp    4d28 <_ZStplIcSt11char_traitsIcESaIcEENSt7__cxx1112basic_stringIT_T0_T1_EEPKS5_RKS8_+0x128>
    4e40:	b8 0f 00 00 00       	mov    $0xf,%eax
    4e45:	e9 4f fe ff ff       	jmp    4c99 <_ZStplIcSt11char_traitsIcESaIcEENSt7__cxx1112basic_stringIT_T0_T1_EEPKS5_RKS8_+0x99>
    4e4a:	66 0f 1f 44 00 00    	nopw   0x0(%rax,%rax,1)
    4e50:	41 0f b6 00          	movzbl (%r8),%eax
    4e54:	88 01                	mov    %al,(%rcx)
    4e56:	4c 39 c5             	cmp    %r8,%rbp
    4e59:	0f 85 f9 fe ff ff    	jne    4d58 <_ZStplIcSt11char_traitsIcESaIcEENSt7__cxx1112basic_stringIT_T0_T1_EEPKS5_RKS8_+0x158>
    4e5f:	eb bf                	jmp    4e20 <_ZStplIcSt11char_traitsIcESaIcEENSt7__cxx1112basic_stringIT_T0_T1_EEPKS5_RKS8_+0x220>
    4e61:	0f 1f 80 00 00 00 00 	nopl   0x0(%rax)
    4e68:	41 0f b6 06          	movzbl (%r14),%eax
    4e6c:	88 07                	mov    %al,(%rdi)
    4e6e:	49 8b 0c 24          	mov    (%r12),%rcx
    4e72:	e9 f6 fd ff ff       	jmp    4c6d <_ZStplIcSt11char_traitsIcESaIcEENSt7__cxx1112basic_stringIT_T0_T1_EEPKS5_RKS8_+0x6d>
    4e77:	66 0f 1f 84 00 00 00 	nopw   0x0(%rax,%rax,1)
    4e7e:	00 00 
    4e80:	0f b6 01             	movzbl (%rcx),%eax
    4e83:	88 07                	mov    %al,(%rdi)
    4e85:	49 8b 3c 24          	mov    (%r12),%rdi
    4e89:	e9 35 fe ff ff       	jmp    4cc3 <_ZStplIcSt11char_traitsIcESaIcEENSt7__cxx1112basic_stringIT_T0_T1_EEPKS5_RKS8_+0xc3>
    4e8e:	66 90                	xchg   %ax,%ax
    4e90:	e8 db d1 ff ff       	call   2070 <_ZSt17__throw_bad_allocv@plt>
    4e95:	48 8d 3d 13 92 02 00 	lea    0x29213(%rip),%rdi        # 2e0af <_IO_stdin_used+0xaf>
    4e9c:	e8 3f d2 ff ff       	call   20e0 <_ZSt20__throw_length_errorPKc@plt>
    4ea1:	48 8d 3d 9a 91 02 00 	lea    0x2919a(%rip),%rdi        # 2e042 <_IO_stdin_used+0x42>
    4ea8:	e8 33 d2 ff ff       	call   20e0 <_ZSt20__throw_length_errorPKc@plt>
    4ead:	b8 0f 00 00 00       	mov    $0xf,%eax
    4eb2:	e9 a2 fd ff ff       	jmp    4c59 <_ZStplIcSt11char_traitsIcESaIcEENSt7__cxx1112basic_stringIT_T0_T1_EEPKS5_RKS8_+0x59>
    4eb7:	49 89 c5             	mov    %rax,%r13
    4eba:	49 8b 3c 24          	mov    (%r12),%rdi
    4ebe:	48 39 fd             	cmp    %rdi,%rbp
    4ec1:	74 0e                	je     4ed1 <_ZStplIcSt11char_traitsIcESaIcEENSt7__cxx1112basic_stringIT_T0_T1_EEPKS5_RKS8_+0x2d1>
    4ec3:	49 8b 74 24 10       	mov    0x10(%r12),%rsi
    4ec8:	48 83 c6 01          	add    $0x1,%rsi
    4ecc:	e8 0f d3 ff ff       	call   21e0 <_ZdlPvm@plt>
    4ed1:	4c 89 ef             	mov    %r13,%rdi
    4ed4:	e8 27 d5 ff ff       	call   2400 <_Unwind_Resume@plt>
    4ed9:	0f 1f 80 00 00 00 00 	nopl   0x0(%rax)

0000000000004ee0 <_ZN6camera12updateMatrixEv>:
    4ee0:	41 54                	push   %r12
    4ee2:	66 0f ef c0          	pxor   %xmm0,%xmm0
    4ee6:	55                   	push   %rbp
    4ee7:	53                   	push   %rbx
    4ee8:	48 89 fb             	mov    %rdi,%rbx
    4eeb:	48 83 ec 40          	sub    $0x40,%rsp
    4eef:	48 8d 6c 24 38       	lea    0x38(%rsp),%rbp
    4ef4:	4c 8d 64 24 30       	lea    0x30(%rsp),%r12
    4ef9:	f3 0f 5a 87 98 00 00 	cvtss2sd 0x98(%rdi),%xmm0
    4f00:	00 
    4f01:	4c 89 e6             	mov    %r12,%rsi
    4f04:	48 89 ef             	mov    %rbp,%rdi
    4f07:	e8 24 d2 ff ff       	call   2130 <sincos@plt>
    4f0c:	66 0f ef c0          	pxor   %xmm0,%xmm0
    4f10:	4c 89 e6             	mov    %r12,%rsi
    4f13:	48 89 ef             	mov    %rbp,%rdi
    4f16:	f2 0f 10 5c 24 30    	movsd  0x30(%rsp),%xmm3
    4f1c:	f2 0f 10 6c 24 38    	movsd  0x38(%rsp),%xmm5
    4f22:	f3 0f 5a 83 94 00 00 	cvtss2sd 0x94(%rbx),%xmm0
    4f29:	00 
    4f2a:	f2 0f 11 5c 24 08    	movsd  %xmm3,0x8(%rsp)
    4f30:	f2 0f 11 2c 24       	movsd  %xmm5,(%rsp)
    4f35:	e8 f6 d1 ff ff       	call   2130 <sincos@plt>
    4f3a:	f2 0f 10 44 24 30    	movsd  0x30(%rsp),%xmm0
    4f40:	f2 0f 10 5c 24 08    	movsd  0x8(%rsp),%xmm3
    4f46:	66 0f ef e4          	pxor   %xmm4,%xmm4
    4f4a:	66 45 0f ef d2       	pxor   %xmm10,%xmm10
    4f4f:	f2 0f 5a 64 24 38    	cvtsd2ss 0x38(%rsp),%xmm4
    4f55:	66 45 0f ef c9       	pxor   %xmm9,%xmm9
    4f5a:	f2 0f 59 d8          	mulsd  %xmm0,%xmm3
    4f5e:	f2 0f 59 04 24       	mulsd  (%rsp),%xmm0
    4f63:	f2 0f 5a db          	cvtsd2ss %xmm3,%xmm3
    4f67:	0f 28 cb             	movaps %xmm3,%xmm1
    4f6a:	f2 44 0f 5a d0       	cvtsd2ss %xmm0,%xmm10
    4f6f:	f3 0f 59 cb          	mulss  %xmm3,%xmm1
    4f73:	0f 28 c4             	movaps %xmm4,%xmm0
    4f76:	f3 0f 59 c4          	mulss  %xmm4,%xmm0
    4f7a:	f3 0f 58 c1          	addss  %xmm1,%xmm0
    4f7e:	41 0f 28 ca          	movaps %xmm10,%xmm1
    4f82:	f3 41 0f 59 ca       	mulss  %xmm10,%xmm1
    4f87:	f3 0f 58 c1          	addss  %xmm1,%xmm0
    4f8b:	44 0f 2e c8          	ucomiss %xmm0,%xmm9
    4f8f:	0f 87 5f 03 00 00    	ja     52f4 <_ZN6camera12updateMatrixEv+0x414>
    4f95:	f3 0f 51 c0          	sqrtss %xmm0,%xmm0
    4f99:	f3 0f 10 2d 3f 91 02 	movss  0x2913f(%rip),%xmm5        # 2e0e0 <_IO_stdin_used+0xe0>
    4fa0:	00 
    4fa1:	0f 28 cd             	movaps %xmm5,%xmm1
    4fa4:	f3 0f 5e c8          	divss  %xmm0,%xmm1
    4fa8:	f3 0f 10 43 68       	movss  0x68(%rbx),%xmm0
    4fad:	0f 28 f0             	movaps %xmm0,%xmm6
    4fb0:	f3 0f 59 e1          	mulss  %xmm1,%xmm4
    4fb4:	f3 0f 59 d9          	mulss  %xmm1,%xmm3
    4fb8:	f3 44 0f 59 d1       	mulss  %xmm1,%xmm10
    4fbd:	f3 0f 10 4b 64       	movss  0x64(%rbx),%xmm1
    4fc2:	0f 28 d1             	movaps %xmm1,%xmm2
    4fc5:	f3 0f 59 d4          	mulss  %xmm4,%xmm2
    4fc9:	f3 0f 11 63 74       	movss  %xmm4,0x74(%rbx)
    4fce:	f3 0f 59 f3          	mulss  %xmm3,%xmm6
    4fd2:	f3 0f 11 5b 70       	movss  %xmm3,0x70(%rbx)
    4fd7:	f3 41 0f 59 c2       	mulss  %xmm10,%xmm0
    4fdc:	f3 44 0f 11 53 78    	movss  %xmm10,0x78(%rbx)
    4fe2:	f3 41 0f 59 ca       	mulss  %xmm10,%xmm1
    4fe7:	f3 0f 5c f2          	subss  %xmm2,%xmm6
    4feb:	f3 0f 10 53 6c       	movss  0x6c(%rbx),%xmm2
    4ff0:	0f 28 fa             	movaps %xmm2,%xmm7
    4ff3:	f3 0f 59 fb          	mulss  %xmm3,%xmm7
    4ff7:	f3 0f 59 d4          	mulss  %xmm4,%xmm2
    4ffb:	f3 0f 5c cf          	subss  %xmm7,%xmm1
    4fff:	f3 0f 5c d0          	subss  %xmm0,%xmm2
    5003:	0f 28 c1             	movaps %xmm1,%xmm0
    5006:	f3 0f 59 c1          	mulss  %xmm1,%xmm0
    500a:	0f 28 fa             	movaps %xmm2,%xmm7
    500d:	f3 0f 59 fa          	mulss  %xmm2,%xmm7
    5011:	f3 0f 58 c7          	addss  %xmm7,%xmm0
    5015:	0f 28 fe             	movaps %xmm6,%xmm7
    5018:	f3 0f 59 fe          	mulss  %xmm6,%xmm7
    501c:	f3 0f 58 c7          	addss  %xmm7,%xmm0
    5020:	44 0f 2e c8          	ucomiss %xmm0,%xmm9
    5024:	0f 87 69 04 00 00    	ja     5493 <_ZN6camera12updateMatrixEv+0x5b3>
    502a:	f3 0f 51 c0          	sqrtss %xmm0,%xmm0
    502e:	0f 28 fd             	movaps %xmm5,%xmm7
    5031:	f3 0f 5e f8          	divss  %xmm0,%xmm7
    5035:	f3 0f 59 f7          	mulss  %xmm7,%xmm6
    5039:	f3 0f 59 cf          	mulss  %xmm7,%xmm1
    503d:	f3 0f 59 d7          	mulss  %xmm7,%xmm2
    5041:	44 0f 28 e6          	movaps %xmm6,%xmm12
    5045:	f3 0f 11 b3 84 00 00 	movss  %xmm6,0x84(%rbx)
    504c:	00 
    504d:	f3 44 0f 59 e3       	mulss  %xmm3,%xmm12
    5052:	0f 28 c1             	movaps %xmm1,%xmm0
    5055:	f3 0f 11 8b 80 00 00 	movss  %xmm1,0x80(%rbx)
    505c:	00 
    505d:	f3 0f 59 f4          	mulss  %xmm4,%xmm6
    5061:	44 0f 28 da          	movaps %xmm2,%xmm11
    5065:	f3 0f 11 53 7c       	movss  %xmm2,0x7c(%rbx)
    506a:	f3 41 0f 59 ca       	mulss  %xmm10,%xmm1
    506f:	f3 41 0f 59 d2       	mulss  %xmm10,%xmm2
    5074:	f3 0f 59 c3          	mulss  %xmm3,%xmm0
    5078:	f3 44 0f 59 dc       	mulss  %xmm4,%xmm11
    507d:	f3 0f 5c ce          	subss  %xmm6,%xmm1
    5081:	f3 44 0f 5c e2       	subss  %xmm2,%xmm12
    5086:	f3 44 0f 5c d8       	subss  %xmm0,%xmm11
    508b:	0f 28 d1             	movaps %xmm1,%xmm2
    508e:	f3 0f 59 d1          	mulss  %xmm1,%xmm2
    5092:	41 0f 28 c4          	movaps %xmm12,%xmm0
    5096:	f3 41 0f 59 c4       	mulss  %xmm12,%xmm0
    509b:	f3 0f 58 c2          	addss  %xmm2,%xmm0
    509f:	41 0f 28 d3          	movaps %xmm11,%xmm2
    50a3:	f3 41 0f 59 d3       	mulss  %xmm11,%xmm2
    50a8:	f3 0f 58 c2          	addss  %xmm2,%xmm0
    50ac:	44 0f 2e c8          	ucomiss %xmm0,%xmm9
    50b0:	0f 87 7a 03 00 00    	ja     5430 <_ZN6camera12updateMatrixEv+0x550>
    50b6:	f3 0f 51 c0          	sqrtss %xmm0,%xmm0
    50ba:	0f 28 d5             	movaps %xmm5,%xmm2
    50bd:	f3 0f 10 73 04       	movss  0x4(%rbx),%xmm6
    50c2:	f3 44 0f 10 03       	movss  (%rbx),%xmm8
    50c7:	f3 0f 5e d0          	divss  %xmm0,%xmm2
    50cb:	f3 0f 10 7b 08       	movss  0x8(%rbx),%xmm7
    50d0:	f3 0f 58 e6          	addss  %xmm6,%xmm4
    50d4:	f3 41 0f 58 d8       	addss  %xmm8,%xmm3
    50d9:	f3 0f 5c e6          	subss  %xmm6,%xmm4
    50dd:	f3 41 0f 5c d8       	subss  %xmm8,%xmm3
    50e2:	0f 28 c4             	movaps %xmm4,%xmm0
    50e5:	f3 0f 59 c4          	mulss  %xmm4,%xmm0
    50e9:	f3 44 0f 59 da       	mulss  %xmm2,%xmm11
    50ee:	f3 44 0f 59 e2       	mulss  %xmm2,%xmm12
    50f3:	f3 0f 59 ca          	mulss  %xmm2,%xmm1
    50f7:	41 0f 28 d2          	movaps %xmm10,%xmm2
    50fb:	44 0f 28 d3          	movaps %xmm3,%xmm10
    50ff:	f3 0f 58 d7          	addss  %xmm7,%xmm2
    5103:	f3 44 0f 59 d3       	mulss  %xmm3,%xmm10
    5108:	f3 44 0f 11 9b 90 00 	movss  %xmm11,0x90(%rbx)
    510f:	00 00 
    5111:	f3 44 0f 11 a3 8c 00 	movss  %xmm12,0x8c(%rbx)
    5118:	00 00 
    511a:	f3 0f 5c d7          	subss  %xmm7,%xmm2
    511e:	f3 0f 11 8b 88 00 00 	movss  %xmm1,0x88(%rbx)
    5125:	00 
    5126:	f3 41 0f 58 c2       	addss  %xmm10,%xmm0
    512b:	44 0f 28 d2          	movaps %xmm2,%xmm10
    512f:	f3 44 0f 59 d2       	mulss  %xmm2,%xmm10
    5134:	f3 41 0f 58 c2       	addss  %xmm10,%xmm0
    5139:	44 0f 2e c8          	ucomiss %xmm0,%xmm9
    513d:	0f 87 66 02 00 00    	ja     53a9 <_ZN6camera12updateMatrixEv+0x4c9>
    5143:	f3 0f 51 c0          	sqrtss %xmm0,%xmm0
    5147:	44 0f 28 d5          	movaps %xmm5,%xmm10
    514b:	f3 44 0f 5e d0       	divss  %xmm0,%xmm10
    5150:	0f 28 c1             	movaps %xmm1,%xmm0
    5153:	f3 41 0f 59 e2       	mulss  %xmm10,%xmm4
    5158:	f3 41 0f 59 da       	mulss  %xmm10,%xmm3
    515d:	f3 41 0f 59 d2       	mulss  %xmm10,%xmm2
    5162:	45 0f 28 d4          	movaps %xmm12,%xmm10
    5166:	f3 0f 59 c4          	mulss  %xmm4,%xmm0
    516a:	f3 44 0f 59 d3       	mulss  %xmm3,%xmm10
    516f:	f3 44 0f 59 e2       	mulss  %xmm2,%xmm12
    5174:	f3 0f 59 ca          	mulss  %xmm2,%xmm1
    5178:	f3 44 0f 5c d0       	subss  %xmm0,%xmm10
    517d:	41 0f 28 c3          	movaps %xmm11,%xmm0
    5181:	f3 0f 59 c3          	mulss  %xmm3,%xmm0
    5185:	f3 44 0f 59 dc       	mulss  %xmm4,%xmm11
    518a:	f3 0f 5c c8          	subss  %xmm0,%xmm1
    518e:	f3 45 0f 5c dc       	subss  %xmm12,%xmm11
    5193:	0f 28 c1             	movaps %xmm1,%xmm0
    5196:	f3 0f 59 c1          	mulss  %xmm1,%xmm0
    519a:	45 0f 28 e3          	movaps %xmm11,%xmm12
    519e:	f3 45 0f 59 e3       	mulss  %xmm11,%xmm12
    51a3:	f3 41 0f 58 c4       	addss  %xmm12,%xmm0
    51a8:	45 0f 28 e2          	movaps %xmm10,%xmm12
    51ac:	f3 45 0f 59 e2       	mulss  %xmm10,%xmm12
    51b1:	f3 41 0f 58 c4       	addss  %xmm12,%xmm0
    51b6:	44 0f 2e c8          	ucomiss %xmm0,%xmm9
    51ba:	0f 87 67 01 00 00    	ja     5327 <_ZN6camera12updateMatrixEv+0x447>
    51c0:	f3 0f 51 c0          	sqrtss %xmm0,%xmm0
    51c4:	44 0f 28 cd          	movaps %xmm5,%xmm9
    51c8:	44 0f 28 f3          	movaps %xmm3,%xmm14
    51cc:	c7 43 30 00 00 00 00 	movl   $0x0,0x30(%rbx)
    51d3:	f3 44 0f 5e c8       	divss  %xmm0,%xmm9
    51d8:	c7 43 40 00 00 00 00 	movl   $0x0,0x40(%rbx)
    51df:	c7 43 50 00 00 00 00 	movl   $0x0,0x50(%rbx)
    51e6:	f3 0f 11 6b 60       	movss  %xmm5,0x60(%rbx)
    51eb:	f3 41 0f 59 c9       	mulss  %xmm9,%xmm1
    51f0:	f3 45 0f 59 d9       	mulss  %xmm9,%xmm11
    51f5:	f3 45 0f 59 d1       	mulss  %xmm9,%xmm10
    51fa:	0f 28 c1             	movaps %xmm1,%xmm0
    51fd:	44 0f 28 e9          	movaps %xmm1,%xmm13
    5201:	f3 0f 11 4b 34       	movss  %xmm1,0x34(%rbx)
    5206:	f3 0f 59 c3          	mulss  %xmm3,%xmm0
    520a:	45 0f 28 e3          	movaps %xmm11,%xmm12
    520e:	45 0f 28 cb          	movaps %xmm11,%xmm9
    5212:	f3 44 0f 59 e4       	mulss  %xmm4,%xmm12
    5217:	f3 44 0f 11 53 44    	movss  %xmm10,0x44(%rbx)
    521d:	f3 44 0f 59 ca       	mulss  %xmm2,%xmm9
    5222:	f3 44 0f 59 ea       	mulss  %xmm2,%xmm13
    5227:	f3 0f 59 ce          	mulss  %xmm6,%xmm1
    522b:	f3 44 0f 5c e0       	subss  %xmm0,%xmm12
    5230:	41 0f 28 c2          	movaps %xmm10,%xmm0
    5234:	f3 0f 59 c3          	mulss  %xmm3,%xmm0
    5238:	f3 44 0f 11 63 48    	movss  %xmm12,0x48(%rbx)
    523e:	f3 44 0f 59 e7       	mulss  %xmm7,%xmm12
    5243:	f3 41 0f 5c c1       	subss  %xmm9,%xmm0
    5248:	45 0f 28 ca          	movaps %xmm10,%xmm9
    524c:	f3 44 0f 59 cc       	mulss  %xmm4,%xmm9
    5251:	f3 44 0f 59 d7       	mulss  %xmm7,%xmm10
    5256:	f3 0f 11 43 38       	movss  %xmm0,0x38(%rbx)
    525b:	f3 0f 59 c6          	mulss  %xmm6,%xmm0
    525f:	f3 0f 59 f4          	mulss  %xmm4,%xmm6
    5263:	f3 0f 59 fa          	mulss  %xmm2,%xmm7
    5267:	f3 45 0f 5c e9       	subss  %xmm9,%xmm13
    526c:	45 0f 28 cb          	movaps %xmm11,%xmm9
    5270:	f3 45 0f 59 d8       	mulss  %xmm8,%xmm11
    5275:	45 0f 14 cd          	unpcklps %xmm13,%xmm9
    5279:	f3 45 0f 59 e8       	mulss  %xmm8,%xmm13
    527e:	44 0f 13 4b 24       	movlps %xmm9,0x24(%rbx)
    5283:	f3 44 0f 10 0d 44 8e 	movss  0x28e44(%rip),%xmm9        # 2e0d0 <_IO_stdin_used+0xd0>
    528a:	02 00 
    528c:	f3 44 0f 59 c3       	mulss  %xmm3,%xmm8
    5291:	45 0f 57 f1          	xorps  %xmm9,%xmm14
    5295:	f3 41 0f 58 cb       	addss  %xmm11,%xmm1
    529a:	f3 44 0f 11 73 2c    	movss  %xmm14,0x2c(%rbx)
    52a0:	44 0f 28 f4          	movaps %xmm4,%xmm14
    52a4:	45 0f 57 f1          	xorps  %xmm9,%xmm14
    52a8:	f3 44 0f 11 73 3c    	movss  %xmm14,0x3c(%rbx)
    52ae:	44 0f 28 f2          	movaps %xmm2,%xmm14
    52b2:	f3 41 0f 58 c5       	addss  %xmm13,%xmm0
    52b7:	f3 41 0f 58 ca       	addss  %xmm10,%xmm1
    52bc:	45 0f 57 f1          	xorps  %xmm9,%xmm14
    52c0:	f3 41 0f 58 f0       	addss  %xmm8,%xmm6
    52c5:	f3 44 0f 11 73 4c    	movss  %xmm14,0x4c(%rbx)
    52cb:	f3 41 0f 58 c4       	addss  %xmm12,%xmm0
    52d0:	41 0f 57 c9          	xorps  %xmm9,%xmm1
    52d4:	f3 0f 58 f7          	addss  %xmm7,%xmm6
    52d8:	f3 0f 11 4b 54       	movss  %xmm1,0x54(%rbx)
    52dd:	41 0f 57 c1          	xorps  %xmm9,%xmm0
    52e1:	f3 0f 11 43 58       	movss  %xmm0,0x58(%rbx)
    52e6:	f3 0f 11 73 5c       	movss  %xmm6,0x5c(%rbx)
    52eb:	48 83 c4 40          	add    $0x40,%rsp
    52ef:	5b                   	pop    %rbx
    52f0:	5d                   	pop    %rbp
    52f1:	41 5c                	pop    %r12
    52f3:	c3                   	ret    
    52f4:	f3 44 0f 11 54 24 14 	movss  %xmm10,0x14(%rsp)
    52fb:	f3 0f 11 64 24 08    	movss  %xmm4,0x8(%rsp)
    5301:	f3 0f 11 1c 24       	movss  %xmm3,(%rsp)
    5306:	e8 05 d1 ff ff       	call   2410 <sqrtf@plt>
    530b:	f3 0f 10 64 24 08    	movss  0x8(%rsp),%xmm4
    5311:	f3 0f 10 1c 24       	movss  (%rsp),%xmm3
    5316:	66 45 0f ef c9       	pxor   %xmm9,%xmm9
    531b:	f3 44 0f 10 54 24 14 	movss  0x14(%rsp),%xmm10
    5322:	e9 72 fc ff ff       	jmp    4f99 <_ZN6camera12updateMatrixEv+0xb9>
    5327:	f3 0f 11 5c 24 2c    	movss  %xmm3,0x2c(%rsp)
    532d:	f3 0f 11 64 24 28    	movss  %xmm4,0x28(%rsp)
    5333:	f3 0f 11 54 24 24    	movss  %xmm2,0x24(%rsp)
    5339:	f3 44 0f 11 5c 24 20 	movss  %xmm11,0x20(%rsp)
    5340:	f3 0f 11 4c 24 1c    	movss  %xmm1,0x1c(%rsp)
    5346:	f3 44 0f 11 54 24 18 	movss  %xmm10,0x18(%rsp)
    534d:	f3 44 0f 11 44 24 14 	movss  %xmm8,0x14(%rsp)
    5354:	f3 0f 11 74 24 08    	movss  %xmm6,0x8(%rsp)
    535a:	f3 0f 11 3c 24       	movss  %xmm7,(%rsp)
    535f:	e8 ac d0 ff ff       	call   2410 <sqrtf@plt>
    5364:	f3 0f 10 5c 24 2c    	movss  0x2c(%rsp),%xmm3
    536a:	f3 0f 10 3c 24       	movss  (%rsp),%xmm7
    536f:	f3 0f 10 2d 69 8d 02 	movss  0x28d69(%rip),%xmm5        # 2e0e0 <_IO_stdin_used+0xe0>
    5376:	00 
    5377:	f3 0f 10 64 24 28    	movss  0x28(%rsp),%xmm4
    537d:	f3 0f 10 54 24 24    	movss  0x24(%rsp),%xmm2
    5383:	f3 44 0f 10 5c 24 20 	movss  0x20(%rsp),%xmm11
    538a:	f3 0f 10 4c 24 1c    	movss  0x1c(%rsp),%xmm1
    5390:	f3 44 0f 10 54 24 18 	movss  0x18(%rsp),%xmm10
    5397:	f3 44 0f 10 44 24 14 	movss  0x14(%rsp),%xmm8
    539e:	f3 0f 10 74 24 08    	movss  0x8(%rsp),%xmm6
    53a4:	e9 1b fe ff ff       	jmp    51c4 <_ZN6camera12updateMatrixEv+0x2e4>
    53a9:	f3 0f 11 4c 24 2c    	movss  %xmm1,0x2c(%rsp)
    53af:	f3 44 0f 11 64 24 28 	movss  %xmm12,0x28(%rsp)
    53b6:	f3 44 0f 11 5c 24 24 	movss  %xmm11,0x24(%rsp)
    53bd:	f3 0f 11 5c 24 20    	movss  %xmm3,0x20(%rsp)
    53c3:	f3 0f 11 64 24 1c    	movss  %xmm4,0x1c(%rsp)
    53c9:	f3 0f 11 54 24 18    	movss  %xmm2,0x18(%rsp)
    53cf:	f3 44 0f 11 44 24 14 	movss  %xmm8,0x14(%rsp)
    53d6:	f3 0f 11 74 24 08    	movss  %xmm6,0x8(%rsp)
    53dc:	f3 0f 11 3c 24       	movss  %xmm7,(%rsp)
    53e1:	e8 2a d0 ff ff       	call   2410 <sqrtf@plt>
    53e6:	f3 0f 10 4c 24 2c    	movss  0x2c(%rsp),%xmm1
    53ec:	f3 0f 10 2d ec 8c 02 	movss  0x28cec(%rip),%xmm5        # 2e0e0 <_IO_stdin_used+0xe0>
    53f3:	00 
    53f4:	66 45 0f ef c9       	pxor   %xmm9,%xmm9
    53f9:	f3 44 0f 10 64 24 28 	movss  0x28(%rsp),%xmm12
    5400:	f3 44 0f 10 5c 24 24 	movss  0x24(%rsp),%xmm11
    5407:	f3 0f 10 5c 24 20    	movss  0x20(%rsp),%xmm3
    540d:	f3 0f 10 64 24 1c    	movss  0x1c(%rsp),%xmm4
    5413:	f3 0f 10 54 24 18    	movss  0x18(%rsp),%xmm2
    5419:	f3 44 0f 10 44 24 14 	movss  0x14(%rsp),%xmm8
    5420:	f3 0f 10 74 24 08    	movss  0x8(%rsp),%xmm6
    5426:	f3 0f 10 3c 24       	movss  (%rsp),%xmm7
    542b:	e9 17 fd ff ff       	jmp    5147 <_ZN6camera12updateMatrixEv+0x267>
    5430:	f3 0f 11 5c 24 20    	movss  %xmm3,0x20(%rsp)
    5436:	f3 0f 11 64 24 1c    	movss  %xmm4,0x1c(%rsp)
    543c:	f3 44 0f 11 54 24 18 	movss  %xmm10,0x18(%rsp)
    5443:	f3 0f 11 4c 24 14    	movss  %xmm1,0x14(%rsp)
    5449:	f3 44 0f 11 64 24 08 	movss  %xmm12,0x8(%rsp)
    5450:	f3 44 0f 11 1c 24    	movss  %xmm11,(%rsp)
    5456:	e8 b5 cf ff ff       	call   2410 <sqrtf@plt>
    545b:	f3 0f 10 5c 24 20    	movss  0x20(%rsp),%xmm3
    5461:	f3 0f 10 2d 77 8c 02 	movss  0x28c77(%rip),%xmm5        # 2e0e0 <_IO_stdin_used+0xe0>
    5468:	00 
    5469:	66 45 0f ef c9       	pxor   %xmm9,%xmm9
    546e:	f3 0f 10 64 24 1c    	movss  0x1c(%rsp),%xmm4
    5474:	f3 44 0f 10 54 24 18 	movss  0x18(%rsp),%xmm10
    547b:	f3 0f 10 4c 24 14    	movss  0x14(%rsp),%xmm1
    5481:	f3 44 0f 10 64 24 08 	movss  0x8(%rsp),%xmm12
    5488:	f3 44 0f 10 1c 24    	movss  (%rsp),%xmm11
    548e:	e9 27 fc ff ff       	jmp    50ba <_ZN6camera12updateMatrixEv+0x1da>
    5493:	f3 0f 11 5c 24 20    	movss  %xmm3,0x20(%rsp)
    5499:	f3 0f 11 64 24 1c    	movss  %xmm4,0x1c(%rsp)
    549f:	f3 44 0f 11 54 24 18 	movss  %xmm10,0x18(%rsp)
    54a6:	f3 0f 11 54 24 14    	movss  %xmm2,0x14(%rsp)
    54ac:	f3 0f 11 4c 24 08    	movss  %xmm1,0x8(%rsp)
    54b2:	f3 0f 11 34 24       	movss  %xmm6,(%rsp)
    54b7:	e8 54 cf ff ff       	call   2410 <sqrtf@plt>
    54bc:	f3 0f 10 5c 24 20    	movss  0x20(%rsp),%xmm3
    54c2:	f3 0f 10 2d 16 8c 02 	movss  0x28c16(%rip),%xmm5        # 2e0e0 <_IO_stdin_used+0xe0>
    54c9:	00 
    54ca:	66 45 0f ef c9       	pxor   %xmm9,%xmm9
    54cf:	f3 0f 10 64 24 1c    	movss  0x1c(%rsp),%xmm4
    54d5:	f3 44 0f 10 54 24 18 	movss  0x18(%rsp),%xmm10
    54dc:	f3 0f 10 54 24 14    	movss  0x14(%rsp),%xmm2
    54e2:	f3 0f 10 4c 24 08    	movss  0x8(%rsp),%xmm1
    54e8:	f3 0f 10 34 24       	movss  (%rsp),%xmm6
    54ed:	e9 3c fb ff ff       	jmp    502e <_ZN6camera12updateMatrixEv+0x14e>
    54f2:	66 66 2e 0f 1f 84 00 	data16 cs nopw 0x0(%rax,%rax,1)
    54f9:	00 00 00 00 
    54fd:	0f 1f 00             	nopl   (%rax)

0000000000005500 <_ZN6cameraC1ERKN3glm3vecILi3EfLNS0_9qualifierE0EEES5_S5_>:
    5500:	48 8b 06             	mov    (%rsi),%rax
    5503:	f3 0f 10 05 d5 8b 02 	movss  0x28bd5(%rip),%xmm0        # 2e0e0 <_IO_stdin_used+0xe0>
    550a:	00 
    550b:	48 c7 47 0c 00 00 00 	movq   $0x0,0xc(%rdi)
    5512:	00 
    5513:	0f 11 47 24          	movups %xmm0,0x24(%rdi)
    5517:	0f 28 05 d2 8b 02 00 	movaps 0x28bd2(%rip),%xmm0        # 2e0f0 <_IO_stdin_used+0xf0>
    551e:	48 89 07             	mov    %rax,(%rdi)
    5521:	8b 46 08             	mov    0x8(%rsi),%eax
    5524:	0f 11 47 34          	movups %xmm0,0x34(%rdi)
    5528:	0f 28 05 d1 8b 02 00 	movaps 0x28bd1(%rip),%xmm0        # 2e100 <_IO_stdin_used+0x100>
    552f:	89 47 08             	mov    %eax,0x8(%rdi)
    5532:	48 8b 02             	mov    (%rdx),%rax
    5535:	0f 11 47 44          	movups %xmm0,0x44(%rdi)
    5539:	0f 28 05 d0 8b 02 00 	movaps 0x28bd0(%rip),%xmm0        # 2e110 <_IO_stdin_used+0x110>
    5540:	48 89 47 18          	mov    %rax,0x18(%rdi)
    5544:	8b 42 08             	mov    0x8(%rdx),%eax
    5547:	48 8b 11             	mov    (%rcx),%rdx
    554a:	0f 11 47 54          	movups %xmm0,0x54(%rdi)
    554e:	89 47 20             	mov    %eax,0x20(%rdi)
    5551:	8b 41 08             	mov    0x8(%rcx),%eax
    5554:	48 89 57 64          	mov    %rdx,0x64(%rdi)
    5558:	89 47 6c             	mov    %eax,0x6c(%rdi)
    555b:	89 87 90 00 00 00    	mov    %eax,0x90(%rdi)
    5561:	48 8b 05 b8 8b 02 00 	mov    0x28bb8(%rip),%rax        # 2e120 <_IO_stdin_used+0x120>
    5568:	c7 47 14 00 00 00 00 	movl   $0x0,0x14(%rdi)
    556f:	48 c7 47 7c 00 00 00 	movq   $0x0,0x7c(%rdi)
    5576:	00 
    5577:	c7 87 84 00 00 00 00 	movl   $0x0,0x84(%rdi)
    557e:	00 00 00 
    5581:	48 89 97 88 00 00 00 	mov    %rdx,0x88(%rdi)
    5588:	48 89 87 94 00 00 00 	mov    %rax,0x94(%rdi)
    558f:	c7 87 9c 00 00 00 00 	movl   $0x0,0x9c(%rdi)
    5596:	00 00 00 
    5599:	e9 42 f9 ff ff       	jmp    4ee0 <_ZN6camera12updateMatrixEv>
    559e:	66 90                	xchg   %ax,%ax

00000000000055a0 <_ZN6camera6updateEfii>:
    55a0:	41 57                	push   %r15
    55a2:	0f 28 f0             	movaps %xmm0,%xmm6
    55a5:	0f 28 f8             	movaps %xmm0,%xmm7
    55a8:	41 56                	push   %r14
    55aa:	0f c6 ff e0          	shufps $0xe0,%xmm7,%xmm7
    55ae:	66 49 0f 7e ff       	movq   %xmm7,%r15
    55b3:	55                   	push   %rbp
    55b4:	48 89 fd             	mov    %rdi,%rbp
    55b7:	53                   	push   %rbx
    55b8:	48 83 ec 38          	sub    $0x38,%rsp
    55bc:	f3 0f 10 0d 88 8b 02 	movss  0x28b88(%rip),%xmm1        # 2e14c <_IO_stdin_used+0x14c>
    55c3:	00 
    55c4:	f3 0f 10 97 94 00 00 	movss  0x94(%rdi),%xmm2
    55cb:	00 
    55cc:	f3 0f 11 44 24 28    	movss  %xmm0,0x28(%rsp)
    55d2:	66 0f ef c0          	pxor   %xmm0,%xmm0
    55d6:	f3 0f 2a c2          	cvtsi2ss %edx,%xmm0
    55da:	f3 0f 59 c1          	mulss  %xmm1,%xmm0
    55de:	f3 0f 59 c6          	mulss  %xmm6,%xmm0
    55e2:	f3 0f 5c d0          	subss  %xmm0,%xmm2
    55e6:	66 0f ef c0          	pxor   %xmm0,%xmm0
    55ea:	f3 0f 2a c6          	cvtsi2ss %esi,%xmm0
    55ee:	f3 0f 11 54 24 0c    	movss  %xmm2,0xc(%rsp)
    55f4:	f3 0f 59 c1          	mulss  %xmm1,%xmm0
    55f8:	f2 0f 10 0d 28 8b 02 	movsd  0x28b28(%rip),%xmm1        # 2e128 <_IO_stdin_used+0x128>
    55ff:	00 
    5600:	f3 0f 59 c6          	mulss  %xmm6,%xmm0
    5604:	f3 0f 58 87 98 00 00 	addss  0x98(%rdi),%xmm0
    560b:	00 
    560c:	f3 0f 5a c0          	cvtss2sd %xmm0,%xmm0
    5610:	e8 9b cc ff ff       	call   22b0 <fmod@plt>
    5615:	f3 0f 10 54 24 0c    	movss  0xc(%rsp),%xmm2
    561b:	f2 0f 5a c0          	cvtsd2ss %xmm0,%xmm0
    561f:	f3 0f 11 85 98 00 00 	movss  %xmm0,0x98(%rbp)
    5626:	00 
    5627:	f3 0f 10 05 15 8b 02 	movss  0x28b15(%rip),%xmm0        # 2e144 <_IO_stdin_used+0x144>
    562e:	00 
    562f:	0f 2f c2             	comiss %xmm2,%xmm0
    5632:	0f 87 f0 01 00 00    	ja     5828 <_ZN6camera6updateEfii+0x288>
    5638:	0f 2f 15 01 8b 02 00 	comiss 0x28b01(%rip),%xmm2        # 2e140 <_IO_stdin_used+0x140>
    563f:	76 08                	jbe    5649 <_ZN6camera6updateEfii+0xa9>
    5641:	f3 0f 10 15 f7 8a 02 	movss  0x28af7(%rip),%xmm2        # 2e140 <_IO_stdin_used+0x140>
    5648:	00 
    5649:	f3 0f 11 95 94 00 00 	movss  %xmm2,0x94(%rbp)
    5650:	00 
    5651:	bf 16 00 00 00       	mov    $0x16,%edi
    5656:	e8 b5 ca ff ff       	call   2110 <_ZN2sf8Keyboard12isKeyPressedENS0_3KeyE@plt>
    565b:	84 c0                	test   %al,%al
    565d:	0f 84 05 03 00 00    	je     5968 <_ZN6camera6updateEfii+0x3c8>
    5663:	f3 0f 7e 4d 70       	movq   0x70(%rbp),%xmm1
    5668:	66 0f ef e4          	pxor   %xmm4,%xmm4
    566c:	0f 57 c0             	xorps  %xmm0,%xmm0
    566f:	66 41 0f 7e e6       	movd   %xmm4,%r14d
    5674:	f3 0f 58 65 78       	addss  0x78(%rbp),%xmm4
    5679:	0f 58 c8             	addps  %xmm0,%xmm1
    567c:	f3 0f 11 64 24 0c    	movss  %xmm4,0xc(%rsp)
    5682:	66 48 0f 7e cb       	movq   %xmm1,%rbx
    5687:	bf 03 00 00 00       	mov    $0x3,%edi
    568c:	e8 7f ca ff ff       	call   2110 <_ZN2sf8Keyboard12isKeyPressedENS0_3KeyE@plt>
    5691:	84 c0                	test   %al,%al
    5693:	0f 84 8f 02 00 00    	je     5928 <_ZN6camera6updateEfii+0x388>
    5699:	f3 0f 7e 45 7c       	movq   0x7c(%rbp),%xmm0
    569e:	66 48 0f 6e fb       	movq   %rbx,%xmm7
    56a3:	f3 0f 10 6c 24 0c    	movss  0xc(%rsp),%xmm5
    56a9:	f3 0f 58 ad 84 00 00 	addss  0x84(%rbp),%xmm5
    56b0:	00 
    56b1:	0f 58 f8             	addps  %xmm0,%xmm7
    56b4:	f3 0f 11 6c 24 0c    	movss  %xmm5,0xc(%rsp)
    56ba:	66 48 0f 7e fb       	movq   %xmm7,%rbx
    56bf:	bf 39 00 00 00       	mov    $0x39,%edi
    56c4:	e8 47 ca ff ff       	call   2110 <_ZN2sf8Keyboard12isKeyPressedENS0_3KeyE@plt>
    56c9:	84 c0                	test   %al,%al
    56cb:	0f 84 1f 02 00 00    	je     58f0 <_ZN6camera6updateEfii+0x350>
    56d1:	f3 0f 7e 6d 64       	movq   0x64(%rbp),%xmm5
    56d6:	f3 0f 10 65 6c       	movss  0x6c(%rbp),%xmm4
    56db:	66 48 0f 6e fb       	movq   %rbx,%xmm7
    56e0:	f3 0f 58 64 24 0c    	addss  0xc(%rsp),%xmm4
    56e6:	f3 0f 7e 55 0c       	movq   0xc(%rbp),%xmm2
    56eb:	0f 58 fd             	addps  %xmm5,%xmm7
    56ee:	0f 28 df             	movaps %xmm7,%xmm3
    56f1:	0f 28 c7             	movaps %xmm7,%xmm0
    56f4:	0f 28 ef             	movaps %xmm7,%xmm5
    56f7:	0f c6 db e5          	shufps $0xe5,%xmm3,%xmm3
    56fb:	f3 0f 59 c7          	mulss  %xmm7,%xmm0
    56ff:	0f 28 cb             	movaps %xmm3,%xmm1
    5702:	66 41 0f 6e fe       	movd   %r14d,%xmm7
    5707:	f3 0f 59 cb          	mulss  %xmm3,%xmm1
    570b:	f3 0f 10 5d 14       	movss  0x14(%rbp),%xmm3
    5710:	f3 0f 58 c8          	addss  %xmm0,%xmm1
    5714:	0f 28 c4             	movaps %xmm4,%xmm0
    5717:	f3 0f 59 c4          	mulss  %xmm4,%xmm0
    571b:	f3 0f 58 c8          	addss  %xmm0,%xmm1
    571f:	0f 2e f9             	ucomiss %xmm1,%xmm7
    5722:	0f 87 08 01 00 00    	ja     5830 <_ZN6camera6updateEfii+0x290>
    5728:	f3 0f 51 c9          	sqrtss %xmm1,%xmm1
    572c:	0f 2f 0d 1d 8a 02 00 	comiss 0x28a1d(%rip),%xmm1        # 2e150 <_IO_stdin_used+0x150>
    5733:	0f 87 87 01 00 00    	ja     58c0 <_ZN6camera6updateEfii+0x320>
    5739:	f3 0f 7e 0d f7 89 02 	movq   0x289f7(%rip),%xmm1        # 2e138 <_IO_stdin_used+0x138>
    5740:	00 
    5741:	f3 0f 59 1d ef 89 02 	mulss  0x289ef(%rip),%xmm3        # 2e138 <_IO_stdin_used+0x138>
    5748:	00 
    5749:	0f 59 ca             	mulps  %xmm2,%xmm1
    574c:	f3 0f 11 5d 14       	movss  %xmm3,0x14(%rbp)
    5751:	0f 28 e9             	movaps %xmm1,%xmm5
    5754:	0f 28 d1             	movaps %xmm1,%xmm2
    5757:	0f 13 4d 0c          	movlps %xmm1,0xc(%rbp)
    575b:	0f c6 ed e5          	shufps $0xe5,%xmm5,%xmm5
    575f:	f3 0f 59 d1          	mulss  %xmm1,%xmm2
    5763:	0f 28 c5             	movaps %xmm5,%xmm0
    5766:	f3 0f 59 c5          	mulss  %xmm5,%xmm0
    576a:	66 41 0f 6e ee       	movd   %r14d,%xmm5
    576f:	f3 0f 58 c2          	addss  %xmm2,%xmm0
    5773:	0f 28 d3             	movaps %xmm3,%xmm2
    5776:	f3 0f 59 d3          	mulss  %xmm3,%xmm2
    577a:	f3 0f 58 c2          	addss  %xmm2,%xmm0
    577e:	0f 2e e8             	ucomiss %xmm0,%xmm5
    5781:	0f 87 46 02 00 00    	ja     59cd <_ZN6camera6updateEfii+0x42d>
    5787:	f3 0f 51 c0          	sqrtss %xmm0,%xmm0
    578b:	0f 2f 05 c2 89 02 00 	comiss 0x289c2(%rip),%xmm0        # 2e154 <_IO_stdin_used+0x154>
    5792:	76 23                	jbe    57b7 <_ZN6camera6updateEfii+0x217>
    5794:	f3 0f 10 15 b8 89 02 	movss  0x289b8(%rip),%xmm2        # 2e154 <_IO_stdin_used+0x154>
    579b:	00 
    579c:	f3 0f 5e d0          	divss  %xmm0,%xmm2
    57a0:	0f 28 c2             	movaps %xmm2,%xmm0
    57a3:	0f c6 c0 e0          	shufps $0xe0,%xmm0,%xmm0
    57a7:	f3 0f 59 d3          	mulss  %xmm3,%xmm2
    57ab:	0f 59 c1             	mulps  %xmm1,%xmm0
    57ae:	f3 0f 11 55 14       	movss  %xmm2,0x14(%rbp)
    57b3:	0f 13 45 0c          	movlps %xmm0,0xc(%rbp)
    57b7:	bf 26 00 00 00       	mov    $0x26,%edi
    57bc:	e8 4f c9 ff ff       	call   2110 <_ZN2sf8Keyboard12isKeyPressedENS0_3KeyE@plt>
    57c1:	f3 0f 10 15 7f 89 02 	movss  0x2897f(%rip),%xmm2        # 2e148 <_IO_stdin_used+0x148>
    57c8:	00 
    57c9:	84 c0                	test   %al,%al
    57cb:	75 08                	jne    57d5 <_ZN6camera6updateEfii+0x235>
    57cd:	f3 0f 10 15 0b 89 02 	movss  0x2890b(%rip),%xmm2        # 2e0e0 <_IO_stdin_used+0xe0>
    57d4:	00 
    57d5:	f3 0f 10 45 14       	movss  0x14(%rbp),%xmm0
    57da:	f3 0f 10 4c 24 28    	movss  0x28(%rsp),%xmm1
    57e0:	66 49 0f 6e df       	movq   %r15,%xmm3
    57e5:	48 89 ef             	mov    %rbp,%rdi
    57e8:	f3 0f 59 c2          	mulss  %xmm2,%xmm0
    57ec:	0f c6 d2 e0          	shufps $0xe0,%xmm2,%xmm2
    57f0:	f3 0f 59 c8          	mulss  %xmm0,%xmm1
    57f4:	f3 0f 7e 45 0c       	movq   0xc(%rbp),%xmm0
    57f9:	f3 0f 58 4d 08       	addss  0x8(%rbp),%xmm1
    57fe:	0f 59 c2             	mulps  %xmm2,%xmm0
    5801:	f3 0f 7e 55 00       	movq   0x0(%rbp),%xmm2
    5806:	f3 0f 11 4d 08       	movss  %xmm1,0x8(%rbp)
    580b:	0f 59 c3             	mulps  %xmm3,%xmm0
    580e:	0f 58 c2             	addps  %xmm2,%xmm0
    5811:	0f 13 45 00          	movlps %xmm0,0x0(%rbp)
    5815:	48 83 c4 38          	add    $0x38,%rsp
    5819:	5b                   	pop    %rbx
    581a:	5d                   	pop    %rbp
    581b:	41 5e                	pop    %r14
    581d:	41 5f                	pop    %r15
    581f:	e9 bc f6 ff ff       	jmp    4ee0 <_ZN6camera12updateMatrixEv>
    5824:	0f 1f 40 00          	nopl   0x0(%rax)
    5828:	0f 28 d0             	movaps %xmm0,%xmm2
    582b:	e9 19 fe ff ff       	jmp    5649 <_ZN6camera6updateEfii+0xa9>
    5830:	0f 28 c1             	movaps %xmm1,%xmm0
    5833:	f3 0f 11 5c 24 2c    	movss  %xmm3,0x2c(%rsp)
    5839:	0f 13 6c 24 20       	movlps %xmm5,0x20(%rsp)
    583e:	0f 13 54 24 18       	movlps %xmm2,0x18(%rsp)
    5843:	f3 0f 11 64 24 10    	movss  %xmm4,0x10(%rsp)
    5849:	f3 0f 11 4c 24 0c    	movss  %xmm1,0xc(%rsp)
    584f:	e8 bc cb ff ff       	call   2410 <sqrtf@plt>
    5854:	0f 2f 05 f5 88 02 00 	comiss 0x288f5(%rip),%xmm0        # 2e150 <_IO_stdin_used+0x150>
    585b:	f3 0f 10 4c 24 0c    	movss  0xc(%rsp),%xmm1
    5861:	f3 0f 10 64 24 10    	movss  0x10(%rsp),%xmm4
    5867:	f3 0f 7e 54 24 18    	movq   0x18(%rsp),%xmm2
    586d:	f3 0f 7e 6c 24 20    	movq   0x20(%rsp),%xmm5
    5873:	f3 0f 10 5c 24 2c    	movss  0x2c(%rsp),%xmm3
    5879:	0f 86 ba fe ff ff    	jbe    5739 <_ZN6camera6updateEfii+0x199>
    587f:	0f 28 c1             	movaps %xmm1,%xmm0
    5882:	f3 0f 11 5c 24 20    	movss  %xmm3,0x20(%rsp)
    5888:	0f 13 6c 24 18       	movlps %xmm5,0x18(%rsp)
    588d:	0f 13 54 24 10       	movlps %xmm2,0x10(%rsp)
    5892:	f3 0f 11 64 24 0c    	movss  %xmm4,0xc(%rsp)
    5898:	e8 73 cb ff ff       	call   2410 <sqrtf@plt>
    589d:	f3 0f 10 64 24 0c    	movss  0xc(%rsp),%xmm4
    58a3:	f3 0f 7e 54 24 10    	movq   0x10(%rsp),%xmm2
    58a9:	f3 0f 7e 6c 24 18    	movq   0x18(%rsp),%xmm5
    58af:	f3 0f 10 5c 24 20    	movss  0x20(%rsp),%xmm3
    58b5:	0f 28 c8             	movaps %xmm0,%xmm1
    58b8:	0f 1f 84 00 00 00 00 	nopl   0x0(%rax,%rax,1)
    58bf:	00 
    58c0:	f3 0f 10 05 18 88 02 	movss  0x28818(%rip),%xmm0        # 2e0e0 <_IO_stdin_used+0xe0>
    58c7:	00 
    58c8:	f3 0f 5e c1          	divss  %xmm1,%xmm0
    58cc:	0f 28 c8             	movaps %xmm0,%xmm1
    58cf:	0f c6 c9 e0          	shufps $0xe0,%xmm1,%xmm1
    58d3:	f3 0f 59 c4          	mulss  %xmm4,%xmm0
    58d7:	0f 59 cd             	mulps  %xmm5,%xmm1
    58da:	f3 0f 58 d8          	addss  %xmm0,%xmm3
    58de:	0f 58 d1             	addps  %xmm1,%xmm2
    58e1:	e9 53 fe ff ff       	jmp    5739 <_ZN6camera6updateEfii+0x199>
    58e6:	66 2e 0f 1f 84 00 00 	cs nopw 0x0(%rax,%rax,1)
    58ed:	00 00 00 
    58f0:	bf 25 00 00 00       	mov    $0x25,%edi
    58f5:	e8 16 c8 ff ff       	call   2110 <_ZN2sf8Keyboard12isKeyPressedENS0_3KeyE@plt>
    58fa:	84 c0                	test   %al,%al
    58fc:	0f 84 be 00 00 00    	je     59c0 <_ZN6camera6updateEfii+0x420>
    5902:	f3 0f 7e 45 64       	movq   0x64(%rbp),%xmm0
    5907:	f3 0f 10 65 6c       	movss  0x6c(%rbp),%xmm4
    590c:	f3 0f 7e 2d 1c 88 02 	movq   0x2881c(%rip),%xmm5        # 2e130 <_IO_stdin_used+0x130>
    5913:	00 
    5914:	0f 57 25 b5 87 02 00 	xorps  0x287b5(%rip),%xmm4        # 2e0d0 <_IO_stdin_used+0xd0>
    591b:	0f 57 e8             	xorps  %xmm0,%xmm5
    591e:	e9 b8 fd ff ff       	jmp    56db <_ZN6camera6updateEfii+0x13b>
    5923:	0f 1f 44 00 00       	nopl   0x0(%rax,%rax,1)
    5928:	31 ff                	xor    %edi,%edi
    592a:	e8 e1 c7 ff ff       	call   2110 <_ZN2sf8Keyboard12isKeyPressedENS0_3KeyE@plt>
    592f:	84 c0                	test   %al,%al
    5931:	0f 84 88 fd ff ff    	je     56bf <_ZN6camera6updateEfii+0x11f>
    5937:	f3 0f 7e 45 7c       	movq   0x7c(%rbp),%xmm0
    593c:	66 48 0f 6e e3       	movq   %rbx,%xmm4
    5941:	f3 0f 10 6c 24 0c    	movss  0xc(%rsp),%xmm5
    5947:	f3 0f 5c ad 84 00 00 	subss  0x84(%rbp),%xmm5
    594e:	00 
    594f:	0f 5c e0             	subps  %xmm0,%xmm4
    5952:	f3 0f 11 6c 24 0c    	movss  %xmm5,0xc(%rsp)
    5958:	66 48 0f 7e e3       	movq   %xmm4,%rbx
    595d:	e9 5d fd ff ff       	jmp    56bf <_ZN6camera6updateEfii+0x11f>
    5962:	66 0f 1f 44 00 00    	nopw   0x0(%rax,%rax,1)
    5968:	bf 12 00 00 00       	mov    $0x12,%edi
    596d:	e8 9e c7 ff ff       	call   2110 <_ZN2sf8Keyboard12isKeyPressedENS0_3KeyE@plt>
    5972:	84 c0                	test   %al,%al
    5974:	74 2a                	je     59a0 <_ZN6camera6updateEfii+0x400>
    5976:	f3 0f 7e 45 70       	movq   0x70(%rbp),%xmm0
    597b:	66 0f ef e4          	pxor   %xmm4,%xmm4
    597f:	0f 57 c9             	xorps  %xmm1,%xmm1
    5982:	66 41 0f 7e e6       	movd   %xmm4,%r14d
    5987:	f3 0f 5c 65 78       	subss  0x78(%rbp),%xmm4
    598c:	0f 5c c8             	subps  %xmm0,%xmm1
    598f:	f3 0f 11 64 24 0c    	movss  %xmm4,0xc(%rsp)
    5995:	66 48 0f 7e cb       	movq   %xmm1,%rbx
    599a:	e9 e8 fc ff ff       	jmp    5687 <_ZN6camera6updateEfii+0xe7>
    599f:	90                   	nop
    59a0:	66 0f ef db          	pxor   %xmm3,%xmm3
    59a4:	31 db                	xor    %ebx,%ebx
    59a6:	66 41 0f 7e de       	movd   %xmm3,%r14d
    59ab:	f3 0f 11 5c 24 0c    	movss  %xmm3,0xc(%rsp)
    59b1:	e9 d1 fc ff ff       	jmp    5687 <_ZN6camera6updateEfii+0xe7>
    59b6:	66 2e 0f 1f 84 00 00 	cs nopw 0x0(%rax,%rax,1)
    59bd:	00 00 00 
    59c0:	0f 57 ed             	xorps  %xmm5,%xmm5
    59c3:	66 41 0f 6e e6       	movd   %r14d,%xmm4
    59c8:	e9 0e fd ff ff       	jmp    56db <_ZN6camera6updateEfii+0x13b>
    59cd:	0f 13 4c 24 10       	movlps %xmm1,0x10(%rsp)
    59d2:	f3 0f 11 5c 24 0c    	movss  %xmm3,0xc(%rsp)
    59d8:	e8 33 ca ff ff       	call   2410 <sqrtf@plt>
    59dd:	f3 0f 7e 4c 24 10    	movq   0x10(%rsp),%xmm1
    59e3:	f3 0f 10 5c 24 0c    	movss  0xc(%rsp),%xmm3
    59e9:	e9 9d fd ff ff       	jmp    578b <_ZN6camera6updateEfii+0x1eb>
    59ee:	66 90                	xchg   %ax,%ax

00000000000059f0 <_ZN6camera13getViewMatrixEv>:
    59f0:	f3 0f 6f 46 24       	movdqu 0x24(%rsi),%xmm0
    59f5:	f3 0f 6f 4e 34       	movdqu 0x34(%rsi),%xmm1
    59fa:	48 89 f8             	mov    %rdi,%rax
    59fd:	f3 0f 6f 56 44       	movdqu 0x44(%rsi),%xmm2
    5a02:	f3 0f 6f 5e 54       	movdqu 0x54(%rsi),%xmm3
    5a07:	0f 11 07             	movups %xmm0,(%rdi)
    5a0a:	0f 11 4f 10          	movups %xmm1,0x10(%rdi)
    5a0e:	0f 11 57 20          	movups %xmm2,0x20(%rdi)
    5a12:	0f 11 5f 30          	movups %xmm3,0x30(%rdi)
    5a16:	c3                   	ret    
    5a17:	66 0f 1f 84 00 00 00 	nopw   0x0(%rax,%rax,1)
    5a1e:	00 00 

0000000000005a20 <_ZL21stbi__mad3sizes_validiiii>:
    5a20:	89 f8                	mov    %edi,%eax
    5a22:	45 31 c0             	xor    %r8d,%r8d
    5a25:	41 89 d1             	mov    %edx,%r9d
    5a28:	09 f0                	or     %esi,%eax
    5a2a:	78 41                	js     5a6d <_ZL21stbi__mad3sizes_validiiii+0x4d>
    5a2c:	85 f6                	test   %esi,%esi
    5a2e:	74 0c                	je     5a3c <_ZL21stbi__mad3sizes_validiiii+0x1c>
    5a30:	b8 ff ff ff 7f       	mov    $0x7fffffff,%eax
    5a35:	99                   	cltd   
    5a36:	f7 fe                	idiv   %esi
    5a38:	39 c7                	cmp    %eax,%edi
    5a3a:	7f 31                	jg     5a6d <_ZL21stbi__mad3sizes_validiiii+0x4d>
    5a3c:	45 31 c0             	xor    %r8d,%r8d
    5a3f:	45 85 c9             	test   %r9d,%r9d
    5a42:	78 29                	js     5a6d <_ZL21stbi__mad3sizes_validiiii+0x4d>
    5a44:	0f af fe             	imul   %esi,%edi
    5a47:	45 85 c9             	test   %r9d,%r9d
    5a4a:	74 0d                	je     5a59 <_ZL21stbi__mad3sizes_validiiii+0x39>
    5a4c:	b8 ff ff ff 7f       	mov    $0x7fffffff,%eax
    5a51:	99                   	cltd   
    5a52:	41 f7 f9             	idiv   %r9d
    5a55:	39 c7                	cmp    %eax,%edi
    5a57:	7f 14                	jg     5a6d <_ZL21stbi__mad3sizes_validiiii+0x4d>
    5a59:	41 0f af f9          	imul   %r9d,%edi
    5a5d:	b8 ff ff ff 7f       	mov    $0x7fffffff,%eax
    5a62:	45 31 c0             	xor    %r8d,%r8d
    5a65:	29 c8                	sub    %ecx,%eax
    5a67:	39 f8                	cmp    %edi,%eax
    5a69:	41 0f 9d c0          	setge  %r8b
    5a6d:	44 89 c0             	mov    %r8d,%eax
    5a70:	c3                   	ret    
    5a71:	66 66 2e 0f 1f 84 00 	data16 cs nopw 0x0(%rax,%rax,1)
    5a78:	00 00 00 00 
    5a7c:	0f 1f 40 00          	nopl   0x0(%rax)

0000000000005a80 <_ZL14resample_row_1PhS_S_ii>:
    5a80:	48 89 f0             	mov    %rsi,%rax
    5a83:	c3                   	ret    
    5a84:	66 66 2e 0f 1f 84 00 	data16 cs nopw 0x0(%rax,%rax,1)
    5a8b:	00 00 00 00 
    5a8f:	90                   	nop

0000000000005a90 <_ZL22stbi__resample_row_v_2PhS_S_ii>:
    5a90:	49 89 f8             	mov    %rdi,%r8
    5a93:	85 c9                	test   %ecx,%ecx
    5a95:	0f 8e 1a 03 00 00    	jle    5db5 <_ZL22stbi__resample_row_v_2PhS_S_ii+0x325>
    5a9b:	48 8d 7e 01          	lea    0x1(%rsi),%rdi
    5a9f:	4c 89 c0             	mov    %r8,%rax
    5aa2:	4c 8d 4a 01          	lea    0x1(%rdx),%r9
    5aa6:	48 29 f8             	sub    %rdi,%rax
    5aa9:	48 83 f8 0e          	cmp    $0xe,%rax
    5aad:	4c 89 c0             	mov    %r8,%rax
    5ab0:	40 0f 97 c7          	seta   %dil
    5ab4:	4c 29 c8             	sub    %r9,%rax
    5ab7:	48 83 f8 0e          	cmp    $0xe,%rax
    5abb:	0f 97 c0             	seta   %al
    5abe:	40 84 c7             	test   %al,%dil
    5ac1:	0f 84 f9 02 00 00    	je     5dc0 <_ZL22stbi__resample_row_v_2PhS_S_ii+0x330>
    5ac7:	8d 41 ff             	lea    -0x1(%rcx),%eax
    5aca:	83 f8 0e             	cmp    $0xe,%eax
    5acd:	0f 86 ed 02 00 00    	jbe    5dc0 <_ZL22stbi__resample_row_v_2PhS_S_ii+0x330>
    5ad3:	66 0f 6f 1d 15 b0 02 	movdqa 0x2b015(%rip),%xmm3        # 30af0 <_ZL11stbi__bmask+0x9f0>
    5ada:	00 
    5adb:	89 cf                	mov    %ecx,%edi
    5add:	66 0f ef d2          	pxor   %xmm2,%xmm2
    5ae1:	31 c0                	xor    %eax,%eax
    5ae3:	c1 ef 04             	shr    $0x4,%edi
    5ae6:	66 0f 6f 2d 12 b0 02 	movdqa 0x2b012(%rip),%xmm5        # 30b00 <_ZL11stbi__bmask+0xa00>
    5aed:	00 
    5aee:	66 0f 6f 25 1a b0 02 	movdqa 0x2b01a(%rip),%xmm4        # 30b10 <_ZL11stbi__bmask+0xa10>
    5af5:	00 
    5af6:	48 c1 e7 04          	shl    $0x4,%rdi
    5afa:	66 0f 60 da          	punpcklbw %xmm2,%xmm3
    5afe:	66 90                	xchg   %ax,%ax
    5b00:	f3 0f 6f 04 06       	movdqu (%rsi,%rax,1),%xmm0
    5b05:	f3 0f 6f 34 02       	movdqu (%rdx,%rax,1),%xmm6
    5b0a:	66 0f 6f c8          	movdqa %xmm0,%xmm1
    5b0e:	66 0f 68 c2          	punpckhbw %xmm2,%xmm0
    5b12:	66 0f 6f fe          	movdqa %xmm6,%xmm7
    5b16:	66 0f 60 ca          	punpcklbw %xmm2,%xmm1
    5b1a:	66 0f d5 c3          	pmullw %xmm3,%xmm0
    5b1e:	66 0f 60 fa          	punpcklbw %xmm2,%xmm7
    5b22:	66 0f d5 cb          	pmullw %xmm3,%xmm1
    5b26:	66 0f 68 f2          	punpckhbw %xmm2,%xmm6
    5b2a:	66 0f fd c6          	paddw  %xmm6,%xmm0
    5b2e:	66 0f fd cf          	paddw  %xmm7,%xmm1
    5b32:	66 0f fd c5          	paddw  %xmm5,%xmm0
    5b36:	66 0f fd cd          	paddw  %xmm5,%xmm1
    5b3a:	66 0f 71 d0 02       	psrlw  $0x2,%xmm0
    5b3f:	66 0f 71 d1 02       	psrlw  $0x2,%xmm1
    5b44:	66 0f db c4          	pand   %xmm4,%xmm0
    5b48:	66 0f db cc          	pand   %xmm4,%xmm1
    5b4c:	66 0f 67 c8          	packuswb %xmm0,%xmm1
    5b50:	41 0f 11 0c 00       	movups %xmm1,(%r8,%rax,1)
    5b55:	48 83 c0 10          	add    $0x10,%rax
    5b59:	48 39 f8             	cmp    %rdi,%rax
    5b5c:	75 a2                	jne    5b00 <_ZL22stbi__resample_row_v_2PhS_S_ii+0x70>
    5b5e:	89 c8                	mov    %ecx,%eax
    5b60:	83 e0 f0             	and    $0xfffffff0,%eax
    5b63:	f6 c1 0f             	test   $0xf,%cl
    5b66:	0f 84 49 02 00 00    	je     5db5 <_ZL22stbi__resample_row_v_2PhS_S_ii+0x325>
    5b6c:	89 c7                	mov    %eax,%edi
    5b6e:	44 0f b6 0c 3e       	movzbl (%rsi,%rdi,1),%r9d
    5b73:	47 8d 14 49          	lea    (%r9,%r9,2),%r10d
    5b77:	44 0f b6 0c 3a       	movzbl (%rdx,%rdi,1),%r9d
    5b7c:	47 8d 4c 0a 02       	lea    0x2(%r10,%r9,1),%r9d
    5b81:	41 c1 f9 02          	sar    $0x2,%r9d
    5b85:	45 88 0c 38          	mov    %r9b,(%r8,%rdi,1)
    5b89:	8d 78 01             	lea    0x1(%rax),%edi
    5b8c:	39 f9                	cmp    %edi,%ecx
    5b8e:	0f 8e 21 02 00 00    	jle    5db5 <_ZL22stbi__resample_row_v_2PhS_S_ii+0x325>
    5b94:	48 63 ff             	movslq %edi,%rdi
    5b97:	44 0f b6 0c 3e       	movzbl (%rsi,%rdi,1),%r9d
    5b9c:	47 8d 14 49          	lea    (%r9,%r9,2),%r10d
    5ba0:	44 0f b6 0c 3a       	movzbl (%rdx,%rdi,1),%r9d
    5ba5:	47 8d 4c 0a 02       	lea    0x2(%r10,%r9,1),%r9d
    5baa:	41 c1 f9 02          	sar    $0x2,%r9d
    5bae:	45 88 0c 38          	mov    %r9b,(%r8,%rdi,1)
    5bb2:	8d 78 02             	lea    0x2(%rax),%edi
    5bb5:	39 f9                	cmp    %edi,%ecx
    5bb7:	0f 8e f8 01 00 00    	jle    5db5 <_ZL22stbi__resample_row_v_2PhS_S_ii+0x325>
    5bbd:	48 63 ff             	movslq %edi,%rdi
    5bc0:	44 0f b6 0c 3e       	movzbl (%rsi,%rdi,1),%r9d
    5bc5:	47 8d 14 49          	lea    (%r9,%r9,2),%r10d
    5bc9:	44 0f b6 0c 3a       	movzbl (%rdx,%rdi,1),%r9d
    5bce:	47 8d 4c 0a 02       	lea    0x2(%r10,%r9,1),%r9d
    5bd3:	41 c1 f9 02          	sar    $0x2,%r9d
    5bd7:	45 88 0c 38          	mov    %r9b,(%r8,%rdi,1)
    5bdb:	8d 78 03             	lea    0x3(%rax),%edi
    5bde:	39 f9                	cmp    %edi,%ecx
    5be0:	0f 8e cf 01 00 00    	jle    5db5 <_ZL22stbi__resample_row_v_2PhS_S_ii+0x325>
    5be6:	48 63 ff             	movslq %edi,%rdi
    5be9:	44 0f b6 0c 3e       	movzbl (%rsi,%rdi,1),%r9d
    5bee:	47 8d 14 49          	lea    (%r9,%r9,2),%r10d
    5bf2:	44 0f b6 0c 3a       	movzbl (%rdx,%rdi,1),%r9d
    5bf7:	47 8d 4c 0a 02       	lea    0x2(%r10,%r9,1),%r9d
    5bfc:	41 c1 f9 02          	sar    $0x2,%r9d
    5c00:	45 88 0c 38          	mov    %r9b,(%r8,%rdi,1)
    5c04:	8d 78 04             	lea    0x4(%rax),%edi
    5c07:	39 f9                	cmp    %edi,%ecx
    5c09:	0f 8e a6 01 00 00    	jle    5db5 <_ZL22stbi__resample_row_v_2PhS_S_ii+0x325>
    5c0f:	48 63 ff             	movslq %edi,%rdi
    5c12:	44 0f b6 0c 3e       	movzbl (%rsi,%rdi,1),%r9d
    5c17:	47 8d 14 49          	lea    (%r9,%r9,2),%r10d
    5c1b:	44 0f b6 0c 3a       	movzbl (%rdx,%rdi,1),%r9d
    5c20:	47 8d 4c 0a 02       	lea    0x2(%r10,%r9,1),%r9d
    5c25:	41 c1 f9 02          	sar    $0x2,%r9d
    5c29:	45 88 0c 38          	mov    %r9b,(%r8,%rdi,1)
    5c2d:	8d 78 05             	lea    0x5(%rax),%edi
    5c30:	39 f9                	cmp    %edi,%ecx
    5c32:	0f 8e 7d 01 00 00    	jle    5db5 <_ZL22stbi__resample_row_v_2PhS_S_ii+0x325>
    5c38:	48 63 ff             	movslq %edi,%rdi
    5c3b:	44 0f b6 0c 3e       	movzbl (%rsi,%rdi,1),%r9d
    5c40:	47 8d 14 49          	lea    (%r9,%r9,2),%r10d
    5c44:	44 0f b6 0c 3a       	movzbl (%rdx,%rdi,1),%r9d
    5c49:	47 8d 4c 0a 02       	lea    0x2(%r10,%r9,1),%r9d
    5c4e:	41 c1 f9 02          	sar    $0x2,%r9d
    5c52:	45 88 0c 38          	mov    %r9b,(%r8,%rdi,1)
    5c56:	8d 78 06             	lea    0x6(%rax),%edi
    5c59:	39 f9                	cmp    %edi,%ecx
    5c5b:	0f 8e 54 01 00 00    	jle    5db5 <_ZL22stbi__resample_row_v_2PhS_S_ii+0x325>
    5c61:	48 63 ff             	movslq %edi,%rdi
    5c64:	44 0f b6 0c 3e       	movzbl (%rsi,%rdi,1),%r9d
    5c69:	47 8d 14 49          	lea    (%r9,%r9,2),%r10d
    5c6d:	44 0f b6 0c 3a       	movzbl (%rdx,%rdi,1),%r9d
    5c72:	47 8d 4c 0a 02       	lea    0x2(%r10,%r9,1),%r9d
    5c77:	41 c1 f9 02          	sar    $0x2,%r9d
    5c7b:	45 88 0c 38          	mov    %r9b,(%r8,%rdi,1)
    5c7f:	8d 78 07             	lea    0x7(%rax),%edi
    5c82:	39 f9                	cmp    %edi,%ecx
    5c84:	0f 8e 2b 01 00 00    	jle    5db5 <_ZL22stbi__resample_row_v_2PhS_S_ii+0x325>
    5c8a:	48 63 ff             	movslq %edi,%rdi
    5c8d:	44 0f b6 0c 3e       	movzbl (%rsi,%rdi,1),%r9d
    5c92:	47 8d 14 49          	lea    (%r9,%r9,2),%r10d
    5c96:	44 0f b6 0c 3a       	movzbl (%rdx,%rdi,1),%r9d
    5c9b:	47 8d 4c 0a 02       	lea    0x2(%r10,%r9,1),%r9d
    5ca0:	41 c1 f9 02          	sar    $0x2,%r9d
    5ca4:	45 88 0c 38          	mov    %r9b,(%r8,%rdi,1)
    5ca8:	8d 78 08             	lea    0x8(%rax),%edi
    5cab:	39 f9                	cmp    %edi,%ecx
    5cad:	0f 8e 02 01 00 00    	jle    5db5 <_ZL22stbi__resample_row_v_2PhS_S_ii+0x325>
    5cb3:	48 63 ff             	movslq %edi,%rdi
    5cb6:	44 0f b6 0c 3e       	movzbl (%rsi,%rdi,1),%r9d
    5cbb:	47 8d 14 49          	lea    (%r9,%r9,2),%r10d
    5cbf:	44 0f b6 0c 3a       	movzbl (%rdx,%rdi,1),%r9d
    5cc4:	47 8d 4c 0a 02       	lea    0x2(%r10,%r9,1),%r9d
    5cc9:	41 c1 f9 02          	sar    $0x2,%r9d
    5ccd:	45 88 0c 38          	mov    %r9b,(%r8,%rdi,1)
    5cd1:	8d 78 09             	lea    0x9(%rax),%edi
    5cd4:	39 f9                	cmp    %edi,%ecx
    5cd6:	0f 8e d9 00 00 00    	jle    5db5 <_ZL22stbi__resample_row_v_2PhS_S_ii+0x325>
    5cdc:	48 63 ff             	movslq %edi,%rdi
